(lp0
(lp1
F-1.0471975511965976
aF2.0943951023931957
aF0.0
aF0.0
aa(lp2
F-1.047197388184959
aF2.0943950208873767
aF4.8842255082436386e-05
aF-2.442112754121822e-05
aa(lp3
F-1.0471962519975007
aF2.094394452793647
aF0.00019439095417938968
aF-9.719547708969495e-05
aa(lp4
F-1.047193182883803
aF2.0943929182367986
aF0.0004351845203961624
aF-0.00021759226019808144
aa(lp5
F-1.0471872356723997
aF2.094389944631097
aF0.0007697687399458391
aF-0.0003848843699729199
aa(lp6
F-1.0471774796971467
aF2.0943850666434707
aF0.0011966967621492859
aF-0.0005983483810746436
aa(lp7
F-1.0471629987235913
aF2.0943778261566925
aF0.001714529099435151
aF-0.0008572645497175764
aa(lp8
F-1.0471428908753408
aF2.0943677722325678
aF0.0023218336273398642
aF-0.001160916813669933
aa(lp9
F-1.0471162685604318
aF2.094354461075113
aF0.003017185584507637
aF-0.0015085927922538203
aa(lp10
F-1.0470822583976986
aF2.0943374559937458
aF0.003799167572690463
aF-0.0018995837863452338
aa(lp11
F-1.0470400011431433
aF2.0943163273664687
aF0.004666369556748118
aF-0.0023331847783740617
aa(lp12
F-1.0469886516163025
aF2.0942906526030485
aF0.005617388864648161
aF-0.0028086944323240837
aa(lp13
F-1.0469273786266187
aF2.0942600161082066
aF0.006650830187465929
aF-0.003325415093732968
aa(lp14
F-1.0468553648998076
aF2.0942240092448006
aF0.007765305579384543
aF-0.003882652789692276
aa(lp15
F-1.0467718070042276
aF2.094182230297011
aF0.008959434457694909
aF-0.0044797172288474595
aa(lp16
F-1.0466759152772491
aF2.0941342844335216
aF0.010231843602795712
aF-0.005115921801397861
aa(lp17
F-1.0465669137516225
aF2.094079783670708
aF0.011581167158193411
aF-0.005790583579096713
aa(lp18
F-1.0464440400818469
aF2.0940183468358207
aF0.013006046630502264
aF-0.006503023315251139
aa(lp19
F-1.0463065454705416
aF2.093949599530168
aF0.014505130889444292
aF-0.007252565444722155
aa(lp20
F-1.0461536945948113
aF2.0938731740923027
aF0.01607707616784932
aF-0.008038538083924669
aa(lp21
F-1.0459847655326182
aF2.0937887095612053
aF0.01772054606165493
aF-0.008860273030827476
aa(lp22
F-1.0457990496891483
aF2.0936958516394713
aF0.019434211529906504
aF-0.00971710576495326
aa(lp23
F-1.0455958517231827
aF2.093594252656488
aF0.0212167508947572
aF-0.010608375447378611
aa(lp24
F-1.0453744894734651
aF2.0934835715316296
aF0.023066849841467948
aF-0.011533424920733986
aa(lp25
F-1.0451342938850707
aF2.0933634737374325
aF0.02498320141840748
aF-0.012491600709203753
aa(lp26
F-1.044874608935776
aF2.093233631262785
aF0.026964506037052294
aF-0.013482253018526161
aa(lp27
F-1.0445947915624267
aF2.09309372257611
aF0.02900947147198668
aF-0.014504735735993356
aa(lp28
F-1.0442942115873077
aF2.0929434325885508
aF0.031116812860902704
aF-0.015558406430451368
aa(lp29
F-1.0439722516445111
aF2.0927824526171523
aF0.033285252704600206
aF-0.016642626352300124
aa(lp30
F-1.043628307106305
aF2.0926104803480494
aF0.035513520866986836
aF-0.01775676043349344
aa(lp31
F-1.0432617860095037
aF2.092427219799649
aF0.03780035457507799
aF-0.018900177287539014
aa(lp32
F-1.0428721089818354
aF2.092232381285815
aF0.040144498418996866
aF-0.020072249209498454
aa(lp33
F-1.0424587091683117
aF2.0920256813790528
aF0.042544704351974445
aF-0.021272352175987247
aa(lp34
F-1.042021032157596
aF2.0918068428736944
aF0.044999731690349466
aF-0.022499865845174754
aa(lp35
F-1.0415585359083732
aF2.0915755947490835
aF0.0475083471135685
aF-0.023754173556784275
aa(lp36
F-1.0410706906757181
aF2.091331672132756
aF0.050069324664185844
aF-0.025034662332092946
aa(lp37
F-1.0405569789374642
aF2.0910748162636286
aF0.05268144574786361
aF-0.026340722873931834
aa(lp38
F-1.0400168953205728
aF2.0908047744551834
aF0.05534349913337169
aF-0.027671749566685878
aa(lp39
F-1.0394499465275027
aF2.090521300058648
aF0.05805428095258775
aF-0.029027140476293904
aa(lp40
F-1.0388556512625768
aF2.0902241524261855
aF0.060812594700497234
aF-0.030406297350248645
aa(lp41
F-1.0382335401583547
aF2.0899130968740742
aF0.06361725123519335
aF-0.03180862561759671
aa(lp42
F-1.037583155701998
aF2.089587904645896
aF0.06646706877787716
aF-0.03323353438893861
aa(lp43
F-1.036904052161641
aF2.089248352875717
aF0.06936087291285742
aF-0.03468043645642875
aa(lp44
F-1.0361957955127599
aF2.088894224551277
aF0.07229749658755072
aF-0.0361487482937754
aa(lp45
F-1.0354579633645407
aF2.088525308477167
aF0.07527578011248141
aF-0.03763789005624075
aa(lp46
F-1.0346901448862487
aF2.0881413992380216
aF0.07829457116128168
aF-0.03914728558064087
aa(lp47
F-1.0338919407335978
aF2.087742297161696
aF0.08135272477069139
aF-0.040676362385345735
aa(lp48
F-1.033062962975118
aF2.0873278082824562
aF0.08444910334055826
aF-0.04222455167027917
aa(lp49
F-1.0322028350185266
aF2.0868977443041605
aF0.08758257663383776
aF-0.04379128831691893
aa(lp50
F-1.0313111915370945
aF2.086451922563444
aF0.09075202177659321
aF-0.04537601088829665
aa(lp51
F-1.0303876783960175
aF2.085990165992906
aF0.09395632325799559
aF-0.046978161628997844
aa(lp52
F-1.029431952578783
aF2.0855123030842884
aF0.09719437293032376
aF-0.048597186465161944
aa(lp53
F-1.0284436821135412
aF2.0850181678516675
aF0.10046507000896443
aF-0.05023253500448227
aa(lp54
F-1.0274225459994726
aF2.0845075997946334
aF0.10376732107241184
aF-0.051883660536205974
aa(lp55
F-1.0263682341331564
aF2.083980443861475
aF0.10710004006226827
aF-0.05355002003113418
aa(lp56
F-1.0252804472349415
aF2.0834365504123675
aF0.11046214828324356
aF-0.05523107414162185
aa(lp57
F-1.0241588967753135
aF2.0828757751825533
aF0.11385257440315562
aF-0.05692628720157788
aa(lp58
F-1.023003304901264
aF2.0822979792455287
aF0.11727025445292985
aF-0.058635127226464995
aa(lp59
F-1.0218134043626599
aF2.081703028976227
aF0.12071413182659964
aF-0.060357065913299895
aa(lp60
F-1.020588938438613
aF2.0810907960142035
aF0.12418315728130597
aF-0.06209157864065306
aa(lp61
F-1.0193296608638476
aF2.0804611572268206
aF0.1276762889372978
aF-0.06383814446864897
aa(lp62
F-1.0180353357550698
aF2.0798139946724317
aF0.13119249227793173
aF-0.06559624613896593
aa(lp63
F-1.0167057375373367
aF2.0791491955635655
aF0.1347307401496722
aF-0.06736537007483619
aa(lp64
F-1.0153406508704255
aF2.0784666522301096
aF0.13829001276209144
aF-0.06914500638104579
aa(lp65
F-1.013939870575202
aF2.0777662620824975
aF0.14186929768786943
aF-0.07093464884393481
aa(lp66
F-1.012503201559989
aF2.0770479275748914
aF0.14546758986279393
aF-0.07273379493139705
aa(lp67
F-1.0110304587469374
aF2.0763115561683656
aF0.14908389158576055
aF-0.07454194579288037
aa(lp68
F-1.0095214669983918
aF2.0755570602940927
aF0.1527172125187726
aF-0.0763586062593864
aa(lp69
F-1.0079760610432626
aF2.074784357316528
aF0.1563665696869412
aF-0.0781832848434707
aa(lp70
F-1.0063940854033933
aF2.0739933694965935
aF0.16003098747848526
aF-0.08001549373924273
aa(lp71
F-1.004775394319929
aF2.0731840239548607
aF0.16370949764473147
aF-0.08185474882236585
aa(lp72
F-1.0031198516796862
aF2.07235625263474
aF0.16740113930011433
aF-0.08370056965005727
aa(lp73
F-1.0014273309415225
aF2.071509992265658
aF0.1711049589221761
aF-0.08555247946108814
aa(lp74
F-0.999697715062703
aF2.0706451843262483
aF0.17482001035156663
aF-0.08741000517578341
aa(lp75
F-0.9979308964252723
aF2.069761775007533
aF0.178545354792044
aF-0.08927267739602211
aa(lp76
F-0.9961267767624206
aF2.0688597151761074
aF0.1822800608104736
aF-0.0911400304052369
aa(lp77
F-0.9942852670848544
aF2.067938960337324
aF0.1860232043368289
aF-0.09301160216841453
aa(lp78
F-0.9924062876071654
aF2.0669994705984793
aF0.18977386866419113
aF-0.09488693433209565
aa(lp79
F-0.9904897676741982
aF2.0660412106319956
aF0.19353114444874897
aF-0.09676557222437461
aa(lp80
F-0.9885356456874203
aF2.065064149638607
aF0.19729412970979945
aF-0.09864706485489987
aa(lp81
F-0.9865438690312907
aF2.0640682613105423
aF0.2010619298297469
aF-0.10053096491487357
aa(lp82
F-0.9845143939996287
aF2.063053523794711
aF0.2048336575541037
aF-0.10241682877705198
aa(lp83
F-0.9824471857219832
aF2.0620199196558886
aF0.20860843299148987
aF-0.10430421649574505
aa(lp84
F-0.9803422180900011
aF2.0609674358398973
aF0.21238538361363324
aF-0.10619269180681673
aa(lp85
F-0.9781994736837967
aF2.059896063636795
aF0.2161636442553694
aF-0.10808182212768484
aa(lp86
F-0.9760189436983201
aF2.0588057986440567
aF0.21994235711464188
aF-0.10997117855732105
aa(lp87
F-0.9738006278697267
aF2.0576966407297603
aF0.22372067175250182
aF-0.11186033587625102
aa(lp88
F-0.9715445344017457
aF2.0565685939957694
aF0.22749774509310822
aF-0.11374887254655423
aa(lp89
F-0.9692506798920493
aF2.0554216667409215
aF0.23127274142372783
aF-0.11563637071186406
aa(lp90
F-0.9669190892586212
aF2.054255871424208
aF0.2350448323947352
aF-0.11752241619736774
aa(lp91
F-0.9645497956661264
aF2.0530712246279603
aF0.23881319701961257
aF-0.11940659850980645
aa(lp92
F-0.9621428404522789
aF2.0518677470210362
aF0.2425770216749502
aF-0.12128851083747522
aa(lp93
F-0.9596982730542117
aF2.050645463322003
aF0.24633550010044578
aF-0.12316775005022305
aa(lp94
F-0.957216150934845
aF2.049404402262319
aF0.25008783339890517
aF-0.12504391669945272
aa(lp95
F-0.9546965395092555
aF2.0481445965495246
aF0.2538332300362417
aF-0.12691661501812102
aa(lp96
F-0.9521395120710453
aF2.0468660828304195
aF0.2575709058414767
aF-0.1287854529207385
aa(lp97
F-0.9495451497187107
aF2.045568901654252
aF0.2613000840067391
aF-0.13065004200336972
aa(lp98
F-0.946913541282011
aF2.0442530974359023
aF0.2650199950872657
aF-0.13250999754363302
aa(lp99
F-0.9442447832483382
aF2.042918718419066
aF0.2687298770014011
aF-0.13436493850070072
aa(lp100
F-0.9415389796890842
aF2.0415658166394386
aF0.2724289750305978
aF-0.13621448751529905
aa(lp101
F-0.9387962421860122
aF2.0401944478879033
aF0.27611654181941564
aF-0.138058270909708
aa(lp102
F-0.9360166897576231
aF2.0388046716737085
aF0.2797918373755227
aF-0.13989591868776158
aa(lp103
F-0.9332004487855263
aF2.0373965511876597
aF0.2834541290696947
aF-0.14172706453484754
aa(lp104
F-0.9303476529408076
aF2.0359701532653007
aF0.28710269163581537
aF-0.14355134581790782
aa(lp105
F-0.9274584431103983
aF2.0345255483500964
aF0.2907368071708754
aF-0.1453684035854379
aa(lp106
F-0.9245329673234446
aF2.0330628104566193
aF0.29435576513497436
aF-0.14717788256748737
aa(lp107
F-0.9215713806776761
aF2.0315820171337347
aF0.29795886235131885
aF-0.1489794311756596
aa(lp108
F-0.9185738452657746
aF2.030083249427784
aF0.30154540300622357
aF-0.15077270150311195
aa(lp109
F-0.9155405301017431
aF2.028566591845768
aF0.30511469864911095
aF-0.15255734932455564
aa(lp110
F-0.9124716110472754
aF2.0270321323185345
aF0.3086660681925109
aF-0.15433303409625568
aa(lp111
F-0.9093672707381238
aF2.025479962163959
aF0.31219883791206177
aF-0.15609941895603102
aa(lp112
F-0.9062276985104692
aF2.0239101760501317
aF0.31571234144650895
aF-0.15785617072325464
aa(lp113
F-0.9030530903272893
aF2.0223228719585418
aF0.31920591979770624
aF-0.1596029598988533
aa(lp114
F-0.8998436487047274
aF2.0207181511472605
aF0.3226789213306147
aF-0.16133946066530758
aa(lp115
F-0.8965995826384625
aF2.019096118114128
aF0.3261307017733037
aF-0.16306535088665206
aa(lp116
F-0.8933211075300764
aF2.017456880559935
aF0.3295606242169499
aF-0.16478031210847516
aa(lp117
F-0.8900084451134241
aF2.015800549351609
aF0.33296805911583804
aF-0.16648402955791922
aa(lp118
F-0.8866618233810023
aF2.014127238485398
aF0.3363523842873606
aF-0.1681761921436805
aa(lp119
F-0.883281476510318
aF2.012437065050056
aF0.3397129849120174
aF-0.16985649245600887
aa(lp120
F-0.8798676447902576
aF2.0107301491900254
aF0.343049253533417
aF-0.17152462676670868
aa(lp121
F-0.8764205745474561
aF2.0090066140686247
aF0.3463605900582749
aF-0.17318029502913762
aa(lp122
F-0.8729405180726658
aF2.0072665858312297
aF0.34964640175641465
aF-0.17482320087820757
aa(lp123
F-0.8694277335471253
aF2.0055101935684596
aF0.35290610326076777
aF-0.17645305163038413
aa(lp124
F-0.865882484968928
aF2.0037375692793606
aF0.35613911656737324
aF-0.17806955828368687
aa(lp125
F-0.8623050420793913
aF2.0019488478345924
aF0.3593448710353778
aF-0.17967243551768913
aa(lp126
F-0.8586956802894263
aF2.00014416693961
aF0.36252280338703663
aF-0.1812614016935185
aa(lp127
F-0.8550546806059053
aF1.9983236670978497
aF0.3656723577077118
aF-0.1828361788538561
aa(lp128
F-0.8513823295580318
aF1.9964874915739126
aF0.36879298544587336
aF-0.18439649272293687
aa(lp129
F-0.8476789191237091
aF1.9946357863567514
aF0.37188414541309983
aF-0.18594207270655017
aa(lp130
F-0.8439447466559088
aF1.9927687001228511
aF0.37494530378407687
aF-0.18747265189203866
aa(lp131
F-0.8401801148090404
aF1.990886384199417
aF0.377975934096598
aF-0.1889879670482992
aa(lp132
F-0.8363853314653202
aF1.9889889925275568
aF0.38097551725156453
aF-0.19048775862578252
aa(lp133
F-0.8325607096611393
aF1.9870766816254664
aF0.383943541512986
aF-0.19197177075649324
aa(lp134
F-0.8287065675134333
aF1.9851496105516135
aF0.386879502507979
aF-0.19343975125398974
aa(lp135
F-0.8248232281460517
aF1.9832079408679228
aF0.3897829032267683
aF-0.19489145161338434
aa(lp136
F-0.8209110196161257
aF1.9812518366029594
aF0.39265325402268636
aF-0.19632662701134337
aa(lp137
F-0.8169702748404376
aF1.9792814642151155
aF0.39549007261217345
aF-0.19774503630608703
aa(lp138
F-0.8130013315217899
aF1.9772969925557917
aF0.39829288407477803
aF-0.1991464420373892
aa(lp139
F-0.8090045320753741
aF1.9752985928325837
aF0.40106122085315554
aF-0.20053061042657802
aa(lp140
F-0.8049802235551398
aF1.9732864385724669
aF0.4037946227530698
aF-0.2018973113765351
aa(lp141
F-0.8009287575801629
aF1.9712607055849782
aF0.4064926369433921
aF-0.2032463184716963
aa(lp142
F-0.7968504902610155
aF1.9692215719254045
aF0.40915481795610165
aF-0.20457740897805107
aa(lp143
F-0.7927457821261341
aF1.9671692178579636
aF0.4117807276862857
aF-0.20589036384314313
aa(lp144
F-0.7886149980481889
aF1.965103825818991
aF0.4143699353921386
aF-0.20718496769606948
aa(lp145
F-0.7844585071704528
aF1.963025580380123
aF0.41692201769496334
aF-0.2084610088474818
aa(lp146
F-0.7802766828331698
aF1.9609346682114819
aF0.4194365585791698
aF-0.20971827928958509
aa(lp147
F-0.7760699024999245
aF1.958831278044859
aF0.42191314939227614
aF-0.21095657469613832
aa(lp148
F-0.7718385476840106
aF1.956715600636902
aF0.42435138884490853
aF-0.2121756944224546
aa(lp149
F-0.7675830038748002
aF1.9545878287322969
aF0.42675088301080044
aF-0.2133754415054005
aa(lp150
F-0.7633036604641125
aF1.952448157026953
aF0.42911124532679334
aF-0.21455562266339695
aa(lp151
F-0.7590009106725825
aF1.9502967821311878
aF0.4314320965928369
aF-0.21571604829641872
aa(lp152
F-0.75467515147603
aF1.9481339025329119
aF0.43371306497198747
aF-0.216856532485994
aa(lp153
F-0.7503267835318298
aF1.9459597185608115
aF0.4359537859904101
aF-0.21797689299520545
aa(lp154
F-0.7459562111052782
aF1.9437744323475357
aF0.4381539025373775
aF-0.21907695126868915
aa(lp155
F-0.7415638419959639
aF1.9415782477928787
aF0.4403130648652698
aF-0.22015653243263517
aa(lp156
F-0.7371500874641362
aF1.9393713705269648
aF0.44243093058957517
aF-0.22121546529478792
aa(lp157
F-0.7327153621570739
aF1.9371540078734335
aF0.44450716468888996
aF-0.2222535823444453
aa(lp158
F-0.7282600840354542
aF1.9349263688126237
aF0.44654143950491737
aF-0.22327071975245902
aa(lp159
F-0.7237846742997218
aF1.9326886639447578
aF0.44853343474246926
aF-0.22426671737123485
aa(lp160
F-0.7192895573164582
aF1.930441105453126
aF0.4504828374694645
aF-0.22524141873473258
aa(lp161
F-0.7147751605447492
aF1.9281839070672715
aF0.4523893421169305
aF-0.22619467105846552
aa(lp162
F-0.7102419144625556
aF1.9259172840261747
aF0.4542526504790019
aF-0.22712632523950121
aa(lp163
F-0.7056902524930811
aF1.9236414530414372
aF0.45607247171292153
aF-0.22803623585646104
aa(lp164
F-0.7011206109311412
aF1.9213566322604674
aF0.45784852233903917
aF-0.22892426116951986
aa(lp165
F-0.696533428869533
aF1.9190630412296632
aF0.4595805262408139
aF-0.22979026312040723
aa(lp166
F-0.6919291481254024
aF1.9167609008575979
aF0.4612682146648109
aF-0.23063410733240583
aa(lp167
F-0.6873082131666152
aF1.9144504333782042
aF0.4629113262207045
aF-0.23145566311035254
aa(lp168
F-0.6826710710381241
aF1.9121318623139587
aF0.46450960688127596
aF-0.23225480344063826
aa(lp169
F-0.6780181712883392
aF1.9098054124390664
aF0.4660628099824146
aF-0.2330314049912076
aa(lp170
F-0.6733499658954955
aF1.9074713097426443
aF0.4675706962231177
aF-0.23378534811155915
aa(lp171
F-0.6686669091940227
aF1.9051297813919081
aF0.46903303366548976
aF-0.2345165168327452
aa(lp172
F-0.663969457800914
aF1.9027810556953537
aF0.47044959773474343
aF-0.23522479886737202
aa(lp173
F-0.6592580705420953
aF1.9004253620659444
aF0.47182017121919956
aF-0.2359100856096002
aa(lp174
F-0.6545332083787927
aF1.898062930984293
aF0.4731445442702861
aF-0.23657227213514348
aa(lp175
F-0.6497953343339037
aF1.8956939939618482
aF0.47442251440253924
aF-0.23721125720126982
aa(lp176
F-0.6450449134183641
aF1.8933187835040786
aF0.4756538864936025
aF-0.23782694324680156
aa(lp177
F-0.640282412557518
aF1.8909375330736555
aF0.47683847278422753
aF-0.23841923639211407
aa(lp178
F-0.6355083005174862
aF1.8885504770536399
aF0.47797609287827364
aF-0.23898804643913713
aa(lp179
F-0.630723047831536
aF1.8861578507106647
aF0.47906657374270833
aF-0.23953328687135447
aa(lp180
F-0.6259271267264487
aF1.883759890158121
aF0.48010974970760617
aF-0.24005487485380342
aa(lp181
F-0.62112101104889
aF1.8813568323193413
aF0.4811054624661496
aF-0.24055273123307513
aa(lp182
F-0.6163051761917774
aF1.8789489148907852
aF0.4820535610746293
aF-0.2410267805373151
aa(lp183
F-0.6114800990206508
aF1.876536376305222
aF0.48295390195244386
aF-0.24147695097622224
aa(lp184
F-0.6066462578000404
aF1.8741194556949168
aF0.4838063488820992
aF-0.24190317444104983
aa(lp185
F-0.6018041321198355
aF1.871698392854814
aF0.48461077300920846
aF-0.24230538650460456
aa(lp186
F-0.5969542028216538
aF1.8692734282057235
aF0.4853670528424941
aF-0.24268352642124746
aa(lp187
F-0.5920969519252104
aF1.8668448027575018
aF0.4860750742537852
aF-0.24303753712689305
aa(lp188
F-0.5872328625546863
aF1.8644127580722398
aF0.48673473047801924
aF-0.24336736523900995
aa(lp189
F-0.5823624188650982
aF1.8619775362274456
aF0.4873459221132405
aF-0.2436729610566206
aa(lp190
F-0.5774861059686659
aF1.8595393797792295
aF0.48790855712060166
aF-0.24395427856030116
aa(lp191
F-0.572604409861183
aF1.8570985317254882
aF0.488422550824364
aF-0.24421127541218232
aa(lp192
F-0.5677178173483842
aF1.8546552354690888
aF0.488887825911895
aF-0.24444391295594795
aa(lp193
F-0.5628268159723155
aF1.8522097347810544
aF0.4893043124336716
aF-0.24465215621683614
aa(lp194
F-0.5579318939377027
aF1.849762273763748
aF0.4896719478032772
aF-0.24483597390163894
aa(lp195
F-0.5530335400383197
aF1.8473130968140565
aF0.4899906767974031
aF-0.24499533839870202
aa(lp196
F-0.5481322435833584
aF1.8448624485865757
aF0.4902604515558495
aF-0.2451302257779251
aa(lp197
F-0.5432284943237968
aF1.842410573956795
aF0.4904812315815229
aF-0.2452406157907617
aa(lp198
F-0.5383227823787686
aF1.8399577179842808
aF0.4906529837404386
aF-0.24532649187021965
aa(lp199
F-0.5334155981619315
aF1.8375041258758624
aF0.490775682261719
aF-0.24538784113085987
aa(lp200
F-0.528507432307837
aF1.8350500429488152
aF0.4908493087375952
aF-0.24542465436879785
aa(lp201
F-0.5235987755982981
aF1.8325957145940457
aF0.4908738521234052
aF-0.24543692606170295
aa(lp202
F-0.5186901188887593
aF1.8301413862392764
aF0.49084930873759514
aF-0.24542465436879796
aa(lp203
F-0.5137819530346647
aF1.827687303312229
aF0.4907756822617183
aF-0.2453878411308597
aa(lp204
F-0.5088747688178279
aF1.8252337112038104
aF0.49065298374043775
aF-0.24532649187021943
aa(lp205
F-0.5039690568727998
aF1.8227808552312967
aF0.4904812315815229
aF-0.24524061579076156
aa(lp206
F-0.49906530761323853
aF1.8203289806015157
aF0.4902604515558501
aF-0.24513022577792543
aa(lp207
F-0.4941640111582771
aF1.8178783323740353
aF0.4899906767974028
aF-0.24499533839870175
aa(lp208
F-0.48926565725889415
aF1.8154291554243436
aF0.4896719478032775
aF-0.24483597390163891
aa(lp209
F-0.4843707352242815
aF1.812981694407037
aF0.4893043124336717
aF-0.24465215621683623
aa(lp210
F-0.47947973384821274
aF1.8105361937190028
aF0.48888782591189495
aF-0.24444391295594786
aa(lp211
F-0.4745931413354145
aF1.808092897462604
aF0.48842255082436425
aF-0.24421127541218252
aa(lp212
F-0.4697114452279317
aF1.8056520494088624
aF0.4879085571206019
aF-0.24395427856030133
aa(lp213
F-0.46483513233149953
aF1.803213892960646
aF0.48734592211324024
aF-0.2436729610566205
aa(lp214
F-0.4599646886419113
aF1.8007786711158522
aF0.48673473047801963
aF-0.24336736523900998
aa(lp215
F-0.45510059927138724
aF1.7983466264305903
aF0.4860750742537858
aF-0.24303753712689308
aa(lp216
F-0.4502433483749442
aF1.7959180009823685
aF0.4853670528424944
aF-0.24268352642124758
aa(lp217
F-0.4453934190767624
aF1.793493036333278
aF0.4846107730092084
aF-0.24230538650460465
aa(lp218
F-0.44055129339655746
aF1.7910719734931753
aF0.48380634888209917
aF-0.24190317444105003
aa(lp219
F-0.4357174521759473
aF1.78865505288287
aF0.48295390195244414
aF-0.24147695097622246
aa(lp220
F-0.4308923750048211
aF1.786242514297307
aF0.4820535610746298
aF-0.2410267805373153
aa(lp221
F-0.42607654014770874
aF1.783834596868751
aF0.48110546246614994
aF-0.24055273123307536
aa(lp222
F-0.42127042447014973
aF1.781431539029971
aF0.48010974970760645
aF-0.24005487485380345
aa(lp223
F-0.41647450336506264
aF1.7790335784774278
aF0.4790665737427082
aF-0.2395332868713545
aa(lp224
F-0.41168925067911233
aF1.7766409521344526
aF0.47797609287827414
aF-0.2389880464391373
aa(lp225
F-0.4069151386390808
aF1.774253896114437
aF0.47683847278422775
aF-0.23841923639211432
aa(lp226
F-0.4021526377782347
aF1.771872645684014
aF0.47565388649360274
aF-0.23782694324680181
aa(lp227
F-0.39740221686269533
aF1.769497435226244
aF0.47442251440254
aF-0.23721125720127023
aa(lp228
F-0.3926643428178064
aF1.7671284982037996
aF0.4731445442702865
aF-0.23657227213514376
aa(lp229
F-0.3879394806545038
aF1.7647660671221483
aF0.4718201712192006
aF-0.23591008560960053
aa(lp230
F-0.3832280933956853
aF1.762410373492739
aF0.4704495977347446
aF-0.2352247988673728
aa(lp231
F-0.37853064200257663
aF1.7600616477961848
aF0.46903303366548976
aF-0.23451651683274538
aa(lp232
F-0.37384758530110396
aF1.7577201194454484
aF0.4675706962231184
aF-0.23378534811155965
aa(lp233
F-0.36917937990826033
aF1.7553860167490267
aF0.4660628099824152
aF-0.23303140499120784
aa(lp234
F-0.3645264801584752
aF1.7530595668741342
aF0.4645096068812772
aF-0.23225480344063887
aa(lp235
F-0.35988933802998463
aF1.7507409958098887
aF0.46291132622070497
aF-0.2314556631103532
aa(lp236
F-0.3552684030711975
aF1.748430528330495
aF0.46126821466481205
aF-0.2306341073324063
aa(lp237
F-0.35066412232706695
aF1.7461283879584297
aF0.45958052624081525
aF-0.2297902631204079
aa(lp238
F-0.346076940265459
aF1.743834796927626
aF0.4578485223390405
aF-0.22892426116952075
aa(lp239
F-0.34150729870351904
aF1.741549976146656
aF0.4560724717129221
aF-0.22803623585646154
aa(lp240
F-0.33695563673404466
aF1.739274145161919
aF0.4542526504790023
aF-0.22712632523950171
aa(lp241
F-0.33242239065185114
aF1.7370075221208219
aF0.45238934211693094
aF-0.2261946710584659
aa(lp242
F-0.32790799388014225
aF1.7347503237349673
aF0.4504828374694654
aF-0.22524141873473325
aa(lp243
F-0.3234128768968788
aF1.7325027652433358
aF0.4485334347424703
aF-0.2242667173712355
aa(lp244
F-0.31893746716114624
aF1.7302650603754697
aF0.44654143950491876
aF-0.2232707197524597
aa(lp245
F-0.31448218903952674
aF1.7280374213146596
aF0.4445071646888916
aF-0.22225358234444603
aa(lp246
F-0.31004746373246506
aF1.7258200586611288
aF0.44243093058957705
aF-0.22121546529478908
aa(lp247
F-0.3056337092006369
aF1.723613181395215
aF0.44031306486527133
aF-0.220156532432636
aa(lp248
F-0.3012413400913224
aF1.7214169968405575
aF0.4381539025373786
aF-0.21907695126868987
aa(lp249
F-0.29687076766477105
aF1.7192317106272823
aF0.43595378599041257
aF-0.2179768929952065
aa(lp250
F-0.29252239972057104
aF1.717057526655182
aF0.43371306497198936
aF-0.216856532485995
aa(lp251
F-0.2881966405240187
aF1.7148946470569055
aF0.4314320965928389
aF-0.21571604829642
aa(lp252
F-0.28389389073248894
aF1.7127432721611409
aF0.42911124532679557
aF-0.21455562266339834
aa(lp253
F-0.27961454732180147
aF1.7106036004557967
aF0.4267508830108029
aF-0.213375441505402
aa(lp254
F-0.27535900351259124
aF1.708475828551192
aF0.42435138884491086
aF-0.21217569442245587
aa(lp255
F-0.2711276486966764
aF1.706360151143235
aF0.42191314939227786
aF-0.2109565746961395
aa(lp256
F-0.26692086836343143
aF1.704256760976612
aF0.41943655857917106
aF-0.2097182792895862
aa(lp257
F-0.26273904402614867
aF1.7021658488079707
aF0.4169220176949653
aF-0.20846100884748342
aa(lp258
F-0.25858255314841294
aF1.7000876033691024
aF0.41436993539214173
aF-0.20718496769607098
aa(lp259
F-0.25445176907046785
aF1.6980222113301304
aF0.41178072768628904
aF-0.20589036384314463
aa(lp260
F-0.2503470609355859
aF1.6959698572626893
aF0.40915481795610353
aF-0.20457740897805266
aa(lp261
F-0.24626879361643883
aF1.693930723603116
aF0.406492636943395
aF-0.20324631847169816
aa(lp262
F-0.2422173276414621
aF1.6919049906156276
aF0.40379462275307265
aF-0.20189731137653677
aa(lp263
F-0.2381930191212277
aF1.6898928363555106
aF0.4010612208531583
aF-0.2005306104265796
aa(lp264
F-0.2341962196748123
aF1.6878944366323025
aF0.39829288407478125
aF-0.19914644203739107
aa(lp265
F-0.23022727635616436
aF1.6859099649729785
aF0.39549007261217684
aF-0.19774503630608886
aa(lp266
F-0.22628653158047685
aF1.6839395925851348
aF0.3926532540226899
aF-0.1963266270113454
aa(lp267
F-0.22237432305055027
aF1.6819834883201716
aF0.38978290322677145
aF-0.19489145161338617
aa(lp268
F-0.21849098368316855
aF1.6800418186364807
aF0.3868795025079823
aF-0.1934397512539916
aa(lp269
F-0.21463684153546303
aF1.6781147475626281
aF0.3839435415129897
aF-0.1919717707564953
aa(lp270
F-0.21081221973128184
aF1.6762024366605373
aF0.3809755172515681
aF-0.1904877586257845
aa(lp271
F-0.20701743638756187
aF1.6743050449886772
aF0.377975934096602
aF-0.18898796704830145
aa(lp272
F-0.20325280454069328
aF1.672422729065243
aF0.37494530378408153
aF-0.18747265189204076
aa(lp273
F-0.19951863207289344
aF1.670555642831343
aF0.3718841454131039
aF-0.18594207270655239
aa(lp274
F-0.19581522163857035
aF1.6687039376141817
aF0.3687929854458778
aF-0.18439649272293912
aa(lp275
F-0.19214287059069746
aF1.6668677620902448
aF0.36567235770771567
aF-0.1828361788538585
aa(lp276
F-0.18850187090717585
aF1.6650472622484844
aF0.36252280338704135
aF-0.18126140169352079
aa(lp277
F-0.18489250911721145
aF1.6632425813535017
aF0.35934487103538326
aF-0.17967243551769163
aa(lp278
F-0.18131506622767501
aF1.6614538599087338
aF0.35613911656737884
aF-0.17806955828368953
aa(lp279
F-0.17776981764947708
aF1.6596812356196349
aF0.3529061032607732
aF-0.17645305163038671
aa(lp280
F-0.17425703312393637
aF1.6579248433568647
aF0.34964640175641915
aF-0.1748232008782099
aa(lp281
F-0.17077697664914693
aF1.6561848151194698
aF0.34636059005828046
aF-0.17318029502914056
aa(lp282
F-0.16732990640634582
aF1.6544612799980687
aF0.3430492535334222
aF-0.17152462676671143
aa(lp283
F-0.1639160746862851
aF1.652754364138039
aF0.33971298491202306
aF-0.16985649245601186
aa(lp284
F-0.1605357278156001
aF1.6510641907026966
aF0.3363523842873668
aF-0.16817619214368373
aa(lp285
F-0.15718910608317893
aF1.6493908798364854
aF0.3329680591158446
aF-0.16648402955792263
aa(lp286
F-0.15387644366652653
aF1.6477345486281596
aF0.32956062421695664
aF-0.16478031210847854
aa(lp287
F-0.15059796855813978
aF1.646095311073966
aF0.32613070177330883
aF-0.16306535088665508
aa(lp288
F-0.14735390249187574
aF1.644473278040834
aF0.3226789213306209
aF-0.16133946066531113
aa(lp289
F-0.14414446086931343
aF1.642868557229553
aF0.3192059197977115
aF-0.15960295989885642
aa(lp290
F-0.14096985268613382
aF1.6412812531379632
aF0.31571234144651505
aF-0.15785617072325797
aa(lp291
F-0.13783028045847945
aF1.6397114670241364
aF0.31219883791206904
aF-0.15609941895603452
aa(lp292
F-0.13472594014932748
aF1.6381592968695604
aF0.3086660681925175
aF-0.15433303409625942
aa(lp293
F-0.13165702109486
aF1.636624837342326
aF0.3051146986491178
aF-0.15255734932455955
aa(lp294
F-0.12862370593082884
aF1.6351081797603104
aF0.3015454030062301
aF-0.15077270150311528
aa(lp295
F-0.1256261705189261
aF1.6336094120543592
aF0.29795886235132407
aF-0.1489794311756627
aa(lp296
F-0.12266458387315793
aF1.6321286187314756
aF0.2943557651349824
aF-0.14717788256749142
aa(lp297
F-0.11973910808620492
aF1.6306658808379986
aF0.2907368071708816
aF-0.14536840358544145
aa(lp298
F-0.11684989825579595
aF1.6292212759227942
aF0.28710269163582236
aF-0.1435513458179114
aa(lp299
F-0.11399710241107641
aF1.6277948780004348
aF0.2834541290697019
aF-0.14172706453485118
aa(lp300
F-0.11118086143897954
aF1.626386757514386
aF0.27979183737553015
aF-0.13989591868776552
aa(lp301
F-0.10840130901059064
aF1.6249969813001914
aF0.276116541819424
aF-0.13805827090971223
aa(lp302
F-0.10565857150751778
aF1.6236256125486555
aF0.2724289750306048
aF-0.13621448751530263
aa(lp303
F-0.10295276794826447
aF1.6222727107690287
aF0.26872987700140927
aF-0.13436493850070552
aa(lp304
F-0.10028400991459185
aF1.6209383317521922
aF0.26501999508727403
aF-0.13250999754363724
aa(lp305
F-0.097652401477891
aF1.619622527533842
aF0.2613000840067463
aF-0.13065004200337405
aa(lp306
F-0.09505803912555733
aF1.6183253463576748
aF0.2575709058414848
aF-0.1287854529207424
aa(lp307
F-0.09250101168734681
aF1.6170468326385699
aF0.25383323003625025
aF-0.12691661501812557
aa(lp308
F-0.08998140026175738
aF1.6157870269257752
aF0.25008783339891316
aF-0.12504391669945703
aa(lp309
F-0.08749927814239022
aF1.6145459658660912
aF0.24633550010045369
aF-0.12316775005022684
aa(lp310
F-0.0850547107443238
aF1.613323682167058
aF0.24257702167495898
aF-0.12128851083747993
aa(lp311
F-0.08264775553047587
aF1.6121202045601342
aF0.23881319701962056
aF-0.11940659850981095
aa(lp312
F-0.0802784619379806
aF1.6109355577638869
aF0.23504483239474494
aF-0.11752241619737225
aa(lp313
F-0.07794687130455324
aF1.6097697624471732
aF0.23127274142373588
aF-0.11563637071186839
aa(lp314
F-0.07565301679485725
aF1.6086228351923246
aF0.2274977450931166
aF-0.11374887254655874
aa(lp315
F-0.0733969233268763
aF1.6074947884583342
aF0.22372067175251154
aF-0.11186033587625577
aa(lp316
F-0.07117860749828164
aF1.6063856305440378
aF0.21994235711465127
aF-0.10997117855732563
aa(lp317
F-0.06899807751280562
aF1.605295365551299
aF0.21616364425537826
aF-0.10808182212768913
aa(lp318
F-0.06685533310660086
aF1.6042239933481968
aF0.2123853836136429
aF-0.10619269180682145
aa(lp319
F-0.06475036547461932
aF1.603171509532206
aF0.20860843299149945
aF-0.10430421649575017
aa(lp320
F-0.06268315719697348
aF1.6021379053933826
aF0.20483365755411231
aF-0.1024168287770566
aa(lp321
F-0.06065368216531164
aF1.6011231678775517
aF0.2010619298297569
aF-0.10053096491487845
aa(lp322
F-0.05866190550918082
aF1.6001272795494867
aF0.19729412970980897
aF-0.09864706485490449
aa(lp323
F-0.05670778352240324
aF1.5991502185560977
aF0.19353114444875885
aF-0.09676557222437943
aa(lp324
F-0.054791263589437644
aF1.5981919585896147
aF0.18977386866419987
aF-0.09488693433210083
aa(lp325
F-0.05291228411174709
aF1.5972524688507699
aF0.18602320433683817
aF-0.0930116021684202
aa(lp326
F-0.05107077443418051
aF1.5963317140119866
aF0.18228006081048376
aF-0.09114003040524188
aa(lp327
F-0.049266654771329854
aF1.5954296541805613
aF0.17854535479205458
aF-0.08927267739602729
aa(lp328
F-0.0474998361338983
aF1.594546244861845
aF0.17482001035157602
aF-0.08741000517578823
aa(lp329
F-0.0457702202550796
aF1.5936814369224361
aF0.17110495892218758
aF-0.08555247946109379
aa(lp330
F-0.04407769951691387
aF1.5928351765533537
aF0.1674011393001229
aF-0.08370056965006145
aa(lp331
F-0.04242215687667317
aF1.5920074052332323
aF0.1637094976447413
aF-0.08185474882237065
aa(lp332
F-0.04080346579320837
aF1.5911980596915005
aF0.16003098747849576
aF-0.0800154937392481
aa(lp333
F-0.039221490153337424
aF1.5904070718715655
aF0.15636656968695117
aF-0.07818328484347603
aa(lp334
F-0.03767608419821045
aF1.5896343688940011
aF0.15271721251878434
aF-0.07635860625939217
aa(lp335
F-0.03616709244966332
aF1.588879873019728
aF0.1490838915857693
aF-0.07454194579288487
aa(lp336
F-0.034694349636612554
aF1.5881435016132026
aF0.14546758986280395
aF-0.07273379493140264
aa(lp337
F-0.033257680621399555
aF1.5874251671055961
aF0.1418692976878786
aF-0.07093464884393952
aa(lp338
F-0.031856900326175275
aF1.586724776957984
aF0.1382900127621025
aF-0.06914500638105192
aa(lp339
F-0.03049181365926268
aF1.5860422336245281
aF0.13473074014968223
aF-0.06736537007484156
aa(lp340
F-0.029162215441530748
aF1.5853774345156613
aF0.13119249227794239
aF-0.06559624613897164
aa(lp341
F-0.027867890332752054
aF1.5847302719612724
aF0.12767628893730887
aF-0.06383814446865443
aa(lp342
F-0.02660861275798787
aF1.5841006331738898
aF0.12418315728131812
aF-0.062091578640658174
aa(lp343
F-0.025384146833939525
aF1.5834884002118665
aF0.1207141318266105
aF-0.06035706591330481
aa(lp344
F-0.02419424629533573
aF1.582893449942564
aF0.11727025445294004
aF-0.058635127226469574
aa(lp345
F-0.023038654421287497
aF1.5823156540055399
aF0.11385257440316554
aF-0.05692628720158277
aa(lp346
F-0.021917103961659024
aF1.5817548787757256
aF0.11046214828325329
aF-0.055231074141627534
aa(lp347
F-0.02082931706344393
aF1.581210985326618
aF0.1071000400622788
aF-0.0535500200311394
aa(lp348
F-0.019775005197126827
aF1.5806838293934595
aF0.10376732107242059
aF-0.051883660536211185
aa(lp349
F-0.018753869083059094
aF1.5801732613364257
aF0.10046507000897531
aF-0.050232535004487655
aa(lp350
F-0.017765598617816014
aF1.579679126103804
aF0.09719437293033462
aF-0.04859718646516731
aa(lp351
F-0.016809872800580994
aF1.5792012631951866
aF0.09395632325800474
aF-0.04697816162900237
aa(lp352
F-0.0158863596595058
aF1.578739506624649
aF0.0907520217766038
aF-0.0453760108883019
aa(lp353
F-0.014994716178073464
aF1.5782936848839326
aF0.0875825766338485
aF-0.043791288316923804
aa(lp354
F-0.014134588221482058
aF1.5778636209056365
aF0.08444910334056743
aF-0.042224551670283716
aa(lp355
F-0.013305610463002715
aF1.5774491320263972
aF0.08135272477070288
aF-0.04067636238535144
aa(lp356
F-0.012507406310350966
aF1.577050029950072
aF0.07829457116129213
aF-0.03914728558064606
aa(lp357
F-0.011739587832058085
aF1.5766661207109247
aF0.0752757801124897
aF-0.03763789005624485
aa(lp358
F-0.011001755683840209
aF1.5762972046368167
aF0.07229749658756024
aF-0.03614874829378012
aa(lp359
F-0.010293499034957687
aF1.5759430763123758
aF0.06936087291286785
aF-0.03468043645643393
aa(lp360
F-0.009614395494600192
aF1.5756035245421964
aF0.06646706877788766
aF-0.03323353438894383
aa(lp361
F-0.008964011038245623
aF1.5752783323140183
aF0.06361725123520401
aF-0.03180862561760245
aa(lp362
F-0.008341899934023012
aF1.574967276761907
aF0.06081259470050693
aF-0.030406297350253908
aa(lp363
F-0.007747604669096297
aF1.5746701291294447
aF0.05805428095259835
aF-0.029027140476299174
aa(lp364
F-0.007180655876027231
aF1.57438665473291
aF0.055343499133381435
aF-0.027671749566690718
aa(lp365
F-0.006640572259135613
aF1.5741166129244641
aF0.052681445747873035
aF-0.02634072287393696
aa(lp366
F-0.006126860520880406
aF1.5738597570553365
aF0.05006932466419656
aF-0.02503466233209739
aa(lp367
F-0.005639015288225302
aF1.5736158344390092
aF0.04750834711357843
aF-0.023754173556788327
aa(lp368
F-0.005176519039000738
aF1.573384586314397
aF0.04499973169035787
aF-0.02249986584517938
aa(lp369
F-0.004738842028287671
aF1.5731657478090395
aF0.04254470435198332
aF-0.021272352175992548
aa(lp370
F-0.004325442214763164
aF1.5729590479022777
aF0.04014449841900447
aF-0.02007224920950179
aa(lp371
F-0.003935765187095264
aF1.5727642093884442
aF0.03780035457508646
aF-0.018900177287544118
aa(lp372
F-0.0035692440902934663
aF1.5725809488400424
aF0.035513520866994774
aF-0.01775676043349783
aa(lp373
F-0.0032252995520867245
aF1.572408976570939
aF0.03328525270460769
aF-0.01664262635230429
aa(lp374
F-0.0029033396092907893
aF1.572247996599541
aF0.031116812860910947
aF-0.015558406430455474
aa(lp375
F-0.002602759634172891
aF1.5720977066119821
aF0.02900947147199684
aF-0.014504735735997976
aa(lp376
F-0.0023229422608226358
aF1.571957797925307
aF0.026964506037061575
aF-0.0134822530185299
aa(lp377
F-0.0020632573115273445
aF1.5718279554506593
aF0.024983201418415923
aF-0.012491600709207962
aa(lp378
F-0.0018230617231340673
aF1.5717078576564636
aF0.023066849841475445
aF-0.011533424920737723
aa(lp379
F-0.0016016994734151524
aF1.5715971765316032
aF0.021216750894764935
aF-0.010608375447382468
aa(lp380
F-0.0013985015074489127
aF1.571495577548621
aF0.01943421152991487
aF-0.009717105764957434
aa(lp381
F-0.0012127856639780887
aF1.5714027196268856
aF0.017720546061661402
aF-0.008860273030830701
aa(lp382
F-0.001043856601786075
aF1.5713182550957892
aF0.01607707616785614
aF-0.00803853808392807
aa(lp383
F-0.0008910057260562709
aF1.5712418296579234
aF0.01450513088944927
aF-0.007252565444724635
aa(lp384
F-0.0007535111147500828
aF1.5711730823522712
aF0.013006046630509083
aF-0.006503023315254541
aa(lp385
F-0.0006306374449760455
aF1.5711116455173837
aF0.01158116715819979
aF-0.005790583579099007
aa(lp386
F-0.0005216359193491726
aF1.5710571447545698
aF0.01023184360280105
aF-0.005115921801400969
aa(lp387
F-0.00042574419236984795
aF1.571009198891081
aF0.00895943445769909
aF-0.004479717228850433
aa(lp388
F-0.00034218629678939294
aF1.57096741994329
aF0.00776530557938937
aF-0.003882652789694241
aa(lp389
F-0.00027017256997829975
aF1.5709314130798853
aF0.006650830187469481
aF-0.0033254150937356286
aa(lp390
F-0.00020889958029446376
aF1.5709007765850433
aF0.0056173888646515735
aF-0.002808694432326675
aa(lp391
F-0.00015755005345319262
aF1.5708751018216232
aF0.004666369556752592
aF-0.002333184778376296
aa(lp392
F-0.00011529279889899158
aF1.5708539731943452
aF0.003799167572694273
aF-0.0018995837863475806
aa(lp393
F-8.128263616580256e-05
aF1.5708369681129777
aF0.0030171855845111395
aF-0.0015085927922551257
aa(lp394
F-5.466032125589493e-05
aF1.5708236569555236
aF0.0023218336273416185
aF-0.0011609168136708092
aa(lp395
F-3.455247300809816e-05
aF1.5708136030313988
aF0.0017145290994395879
aF-0.0008572645497197939
aa(lp396
F-2.007149944915909e-05
aF1.5708063625446216
aF0.00119669676215306
aF-0.00059834838107653
aa(lp397
F-1.031552419838988e-05
aF1.5708014845569949
aF0.0007697687399499387
aF-0.00038488436997452524
aa(lp398
F-4.36831279504446e-06
aF1.5707985109512923
aF0.0004351845203993676
aF-0.0002175922601996838
aa(lp399
F-1.2991990985256052e-06
aF1.570796976394445
aF0.00019439095418150032
aF-9.719547709030607e-05
aa(lp400
F-1.6301163974219435e-07
aF1.5707964083007155
aF4.884225508483553e-05
aF-2.4421127542417764e-05
aa(lp401
F-8.881784197001252e-16
aF1.5707963267948961
aF1.7763568394002505e-15
aF-8.881784197001252e-16
aa(lp402
F2.4451743740883103e-07
aF1.5707963267948983
aF7.326338260682519e-05
aF0.0
aa(lp403
F1.9487985962740595e-06
aF1.5707963267948983
aF0.0002915864312509342
aF0.0
aa(lp404
F6.552469120180149e-06
aF1.5707963267948983
aF0.0006527767805604157
aF0.0
aa(lp405
F1.5473286243405937e-05
aF1.5707963267948983
aF0.0011546531098858281
aF0.0
aa(lp406
F3.0107249212818488e-05
aF1.5707963267948983
aF0.001795045143190066
aF0.0
aa(lp407
F5.182870948416962e-05
aF1.5707963267948983
aF0.002571793649126519
aF0.0
aa(lp408
F8.199048182788715e-05
aF1.5707963267948983
aF0.003482750441003546
aF0.0
aa(lp409
F0.00012192395423049618
aF1.5707963267948983
aF0.004525778376718748
aF0.0
aa(lp410
F0.00017293919831651294
aF1.5707963267948983
aF0.005698751359020093
aF0.0
aa(lp411
F0.00023632508012028097
aF1.5707963267948983
aF0.006999554335095581
aF0.0
aa(lp412
F0.00031334937039950717
aF1.5707963267948983
aF0.008426083296930287
aF0.0
aa(lp413
F0.00040525885487241453
aF1.5707963267948983
aF0.009976245281189122
aF0.0
aa(lp414
F0.0005132794451387923
aF1.5707963267948983
aF0.011647958369042755
aF0.0
aa(lp415
F0.0006386162885689828
aF1.5707963267948983
aF0.0134391516865211
aF0.0
aa(lp416
F0.0007824538790046631
aF1.5707963267948983
aF0.015347765404156277
aF0.0
aa(lp417
F0.000945956167438311
aF1.5707963267948983
aF0.01737175073727215
aF0.0
aa(lp418
F0.0011302666720531818
aF1.5707963267948983
aF0.01950906994574808
aF0.0
aa(lp419
F0.0013365085890058026
aF1.5707963267948983
aF0.02175769633417879
aF0.0
aa(lp420
F0.0015657849026418091
aF1.5707963267948983
aF0.02411561425174291
aF0.0
aa(lp421
F0.0018191784959089574
aF1.5707963267948983
aF0.026580819092473007
aF0.0
aa(lp422
F0.0020977522611218546
aF1.5707963267948983
aF0.029151317294825674
aF0.0
aa(lp423
F0.0024025492101067414
aF1.5707963267948983
aF0.03182512634211854
aF0.0
aa(lp424
F0.002734592584641149
aF1.5707963267948983
aF0.03460027476218386
aF0.0
aa(lp425
F0.003094885967193761
aF1.5707963267948983
aF0.037474802127578144
aF0.0
aa(lp426
F0.0034844133911633435
aF1.5707963267948983
aF0.040446759055559056
aF0.0
aa(lp427
F0.0039041394512064898
aF1.5707963267948983
aF0.04351420720795751
aF0.0
aa(lp428
F0.0043550094138193884
aF1.5707963267948983
aF0.046675219291334
aF0.0
aa(lp429
F0.00483794932808479
aF1.5707963267948983
aF0.04992787905687024
aF0.0
aa(lp430
F0.005353866135411778
aF1.5707963267948983
aF0.05327028130040112
aF0.0
aa(lp431
F0.005903647780572285
aF1.5707963267948983
aF0.0567005318625764
aF0.0
aa(lp432
F0.006488163322083906
aF1.5707963267948983
aF0.060216747628475176
aF0.0
aa(lp433
F0.007108263042363561
aF1.5707963267948983
aF0.06381705652793812
aF0.0
aa(lp434
F0.007764778558399854
aF1.5707963267948983
aF0.06749959753550527
aF0.0
aa(lp435
F0.00845852293228333
aF1.5707963267948983
aF0.07126252067032013
aF0.0
aa(lp436
F0.00919029078130329
aF1.5707963267948983
aF0.07510398699623977
aF0.0
aa(lp437
F0.009960858388623706
aF1.5707963267948983
aF0.07902216862174782
aF0.0
aa(lp438
F0.01077098381396091
aF1.5707963267948983
aF0.08301524870000065
aF0.0
aa(lp439
F0.011621407003575612
aF1.5707963267948983
aF0.08708142142884157
aF0.0
aa(lp440
F0.012512849900963019
aF1.5707963267948983
aF0.09121889205070488
aF0.0
aa(lp441
F0.013446016557331575
aF1.5707963267948983
aF0.09542587685277581
aF0.0
aa(lp442
F0.014421593241829456
aF1.5707963267948983
aF0.09970060316678797
aF0.0
aa(lp443
F0.015440248552406999
aF1.5707963267948983
aF0.10404130936922229
aF0.0
aa(lp444
F0.01650263352568082
aF1.5707963267948983
aF0.10844624488127153
aF0.0
aa(lp445
F0.017609381747979214
aF1.5707963267948983
aF0.11291367016866616
aF0.0
aa(lp446
F0.018761109465483372
aF1.5707963267948983
aF0.11744185674188046
aF0.0
aa(lp447
F0.01995841569443968
aF1.5707963267948983
aF0.12202908715600458
aF0.0
aa(lp448
F0.021201882332185562
aF1.5707963267948983
aF0.12667365501077654
aF0.0
aa(lp449
F0.02249207426709887
aF1.5707963267948983
aF0.13137386495070658
aF0.0
aa(lp450
F0.023829539489202745
aF1.5707963267948983
aF0.1361280326648462
aF0.0
aa(lp451
F0.025214809200811317
aF1.5707963267948983
aF0.1409344848869516
aF0.0
aa(lp452
F0.026648397926688716
aF1.5707963267948983
aF0.14579155939542687
aF0.0
aa(lp453
F0.028130803624506484
aF1.5707963267948983
aF0.15069760501339502
aF0.0
aa(lp454
F0.02966250779562074
aF1.5707963267948983
aF0.15565098160859137
aF0.0
aa(lp455
F0.031243975595138807
aF1.5707963267948983
aF0.16065006009332095
aF0.0
aa(lp456
F0.03287565594245123
aF1.5707963267948983
aF0.16569322242480666
aF0.0
aa(lp457
F0.034557981631884616
aF1.5707963267948983
aF0.17077886160470257
aF0.0
aa(lp458
F0.03629136944292455
aF1.5707963267948983
aF0.17590538167934966
aF0.0
aa(lp459
F0.03807622025090751
aF1.5707963267948983
aF0.18107119773983982
aF0.0
aa(lp460
F0.039912919136938285
aF1.5707963267948983
aF0.18627473592191635
aF0.0
aa(lp461
F0.04180183549905436
aF1.5707963267948983
aF0.19151443340590646
aF0.0
aa(lp462
F0.04374332316224283
aF1.5707963267948983
aF0.1967887384168776
aF0.0
aa(lp463
F0.045737720488872924
aF1.5707963267948983
aF0.2020961102244705
aF0.0
aa(lp464
F0.047785350489181866
aF1.5707963267948983
aF0.20743501914307316
aF0.0
aa(lp465
F0.04988652093203072
aF1.5707963267948983
aF0.21280394653175705
aF0.0
aa(lp466
F0.0520415244548893
aF1.5707963267948983
aF0.21820138479414197
aF0.0
aa(lp467
F0.054250638674478324
aF1.5707963267948983
aF0.223625837378588
aF0.0
aa(lp468
F0.05651412629724106
aF1.5707963267948983
aF0.22907581877812788
aF0.0
aa(lp469
F0.058832235229957064
aF1.5707963267948983
aF0.23454985453034283
aF0.0
aa(lp470
F0.061205198689680884
aF1.5707963267948983
aF0.240046481217707
aF0.0
aa(lp471
F0.06363323531493492
aF1.5707963267948983
aF0.24556424646702624
aF0.0
aa(lp472
F0.06611654927531063
aF1.5707963267948983
aF0.2511017089500953
aF0.0
aa(lp473
F0.06865533038251215
aF1.5707963267948983
aF0.256657438383197
aF0.0
aa(lp474
F0.07124975420082436
aF1.5707963267948983
aF0.26223001552728675
aF0.0
aa(lp475
F0.07389998215692373
aF1.5707963267948983
aF0.26781803218802125
aF0.0
aa(lp476
F0.07660616165123812
aF1.5707963267948983
aF0.2734200912156801
aF0.0
aa(lp477
F0.07936842616759066
aF1.5707963267948983
aF0.2790348065051447
aF0.0
aa(lp478
F0.0821868953840692
aF1.5707963267948983
aF0.2846608029961999
aF0.0
aa(lp479
F0.08506167528355135
aF1.5707963267948983
aF0.2902967166730477
aF0.0
aa(lp480
F0.08799285826368575
aF1.5707963267948983
aF0.2959411945646373
aF0.0
aa(lp481
F0.0909805232478611
aF1.5707963267948983
aF0.30159289474457296
aF0.0
aa(lp482
F0.09402473579543269
aF1.5707963267948983
aF0.3072504863310783
aF0.0
aa(lp483
F0.09712554821183161
aF1.5707963267948983
aF0.31291264948714925
aF0.0
aa(lp484
F0.1002829996598038
aF1.5707963267948983
aF0.31857807542042593
aF0.0
aa(lp485
F0.10349711626916047
aF1.5707963267948983
aF0.3242454663829726
aF0.0
aa(lp486
F0.10676791124732432
aF1.5707963267948983
aF0.3299135356719063
aF0.0
aa(lp487
F0.11009538499019556
aF1.5707963267948983
aF0.3355810076286936
aF0.0
aa(lp488
F0.11347952519220428
aF1.5707963267948983
aF0.3412466176396052
aF0.0
aa(lp489
F0.11692030695680344
aF1.5707963267948983
aF0.3469091121355419
aF0.0
aa(lp490
F0.12041769290685522
aF1.5707963267948983
aF0.35256724859206656
aF0.0
aa(lp491
F0.12397163329560712
aF1.5707963267948983
aF0.35821979552936867
aF0.0
aa(lp492
F0.1275820661164353
aF1.5707963267948983
aF0.36386553251235654
aF0.0
aa(lp493
F0.13124891721351872
aF1.5707963267948983
aF0.3695032501506148
aF0.0
aa(lp494
F0.13497210039252394
aF1.5707963267948983
aF0.3751317500983191
aF0.0
aa(lp495
F0.1387515175309666
aF1.5707963267948983
aF0.38074984505426457
aF0.0
aa(lp496
F0.14258705868831711
aF1.5707963267948983
aF0.3863563587621037
aF0.0
aa(lp497
F0.14647860221674947
aF1.5707963267948983
aF0.39195012601004464
aF0.0
aa(lp498
F0.150426014871762
aF1.5707963267948983
aF0.3975299926308402
aF0.0
aa(lp499
F0.15442915192231865
aF1.5707963267948983
aF0.4030948155020866
aF0.0
aa(lp500
F0.15848785726117498
aF1.5707963267948983
aF0.4086434625458182
aF0.0
aa(lp501
F0.16260196351576894
aF1.5707963267948983
aF0.41417481272904766
aF0.0
aa(lp502
F0.16677129215837638
aF1.5707963267948983
aF0.4196877560632686
aF0.0
aa(lp503
F0.1709956536164441
aF1.5707963267948983
aF0.42518119360446605
aF0.0
aa(lp504
F0.17527484738356236
aF1.5707963267948983
aF0.4306540374536496
aF0.0
aa(lp505
F0.17960866212924387
aF1.5707963267948983
aF0.43610521075629194
aF0.0
aa(lp506
F0.183996875809612
aF1.5707963267948983
aF0.44153364770240344
aF0.0
aa(lp507
F0.1884392557783272
aF1.5707963267948983
aF0.4469382935268911
aF0.0
aa(lp508
F0.19293555889611724
aF1.5707963267948983
aF0.4523181045093061
aF0.0
aa(lp509
F0.1974855316420978
aF1.5707963267948983
aF0.45767204797360606
aF0.0
aa(lp510
F0.20208891022389253
aF1.5707963267948983
aF0.462999102288709
aF0.0
aa(lp511
F0.20674542068764268
aF1.5707963267948983
aF0.4682982568680387
aF0.0
aa(lp512
F0.21145477902908993
aF1.5707963267948983
aF0.4735685121697273
aF0.0
aa(lp513
F0.21621669130387033
aF1.5707963267948983
aF0.47880887969653685
aF0.0
aa(lp514
F0.22103085373772302
aF1.5707963267948983
aF0.48401838199581704
aF0.0
aa(lp515
F0.2258969528371253
aF1.5707963267948983
aF0.4891960526599064
aF0.0
aa(lp516
F0.23081466549975005
aF1.5707963267948983
aF0.4943409363253366
aF0.0
aa(lp517
F0.2357836591246425
aF1.5707963267948983
aF0.49945208867366375
aF0.0
aa(lp518
F0.24080359172327803
aF1.5707963267948983
aF0.5045285764310137
aF0.0
aa(lp519
F0.2458741120292558
aF1.5707963267948983
aF0.5095694773679824
aF0.0
aa(lp520
F0.2509948596094489
aF1.5707963267948983
aF0.5145738803000981
aF0.0
aa(lp521
F0.2561654649736198
aF1.5707963267948983
aF0.5195408850873378
aF0.0
aa(lp522
F0.26138554968579086
aF1.5707963267948983
aF0.5244696026345537
aF0.0
aa(lp523
F0.2666547264741439
aF1.5707963267948983
aF0.5293591548910754
aF0.0
aa(lp524
F0.2719725993414315
aF1.5707963267948983
aF0.5342086748509942
aF0.0
aa(lp525
F0.2773387636757505
aF1.5707963267948983
aF0.5390173065529993
aF0.0
aa(lp526
F0.28275280636069056
aF1.5707963267948983
aF0.5437842050805344
aF0.0
aa(lp527
F0.2882143058859086
aF1.5707963267948983
aF0.5485085365615205
aF0.0
aa(lp528
F0.293722832457739
aF1.5707963267948983
aF0.5531894781687399
aF0.0
aa(lp529
F0.2992779481092569
aF1.5707963267948983
aF0.5578262181195441
aF0.0
aa(lp530
F0.3048792068108739
aF1.5707963267948983
aF0.5624179556760609
aF0.0
aa(lp531
F0.310526154581261
aF1.5707963267948983
aF0.5669639011448737
aF0.0
aa(lp532
F0.31621832959681484
aF1.5707963267948983
aF0.5714632758773064
aF0.0
aa(lp533
F0.32195526230309923
aF1.5707963267948983
aF0.5759153122694727
aF0.0
aa(lp534
F0.32773647552464524
aF1.5707963267948983
aF0.5803192537618855
aF0.0
aa(lp535
F0.3335614845756396
aF1.5707963267948983
aF0.584674354840061
aF0.0
aa(lp536
F0.3394297973706273
aF1.5707963267948983
aF0.5889798810339784
aF0.0
aa(lp537
F0.34534091453409843
aF1.5707963267948983
aF0.5932351089181793
aF0.0
aa(lp538
F0.3512943295121502
aF1.5707963267948983
aF0.5974393261121591
aF0.0
aa(lp539
F0.35728952868169017
aF1.5707963267948983
aF0.6015918312796771
aF0.0
aa(lp540
F0.36332599146209077
aF1.5707963267948983
aF0.6056919341294957
aF0.0
aa(lp541
F0.36940319042453496
aF1.5707963267948983
aF0.6097389554150823
aF0.0
aa(lp542
F0.3755205914031521
aF1.5707963267948983
aF0.6137322269340899
aF0.0
aa(lp543
F0.3816776536055073
aF1.5707963267948983
aF0.6176710915294521
aF0.0
aa(lp544
F0.3878738297224871
aF1.5707963267948983
aF0.6215549030881888
aF0.0
aa(lp545
F0.3941085660391579
aF1.5707963267948983
aF0.6253830265423801
aF0.0
aa(lp546
F0.4003813025450711
aF1.5707963267948983
aF0.6291548378687537
aF0.0
aa(lp547
F0.4066914730449227
aF1.5707963267948983
aF0.6328697240883372
aF0.0
aa(lp548
F0.4130385052687444
aF1.5707963267948983
aF0.6365270832672749
aF0.0
aa(lp549
F0.41942182098248537
aF1.5707963267948983
aF0.6401263245161815
aF0.0
aa(lp550
F0.42584083609867207
aF1.5707963267948983
aF0.6436668679901345
aF0.0
aa(lp551
F0.4322949607858675
aF1.5707963267948983
aF0.6471481448892362
aF0.0
aa(lp552
F0.438783599580745
aF1.5707963267948983
aF0.650569597457924
aF0.0
aa(lp553
F0.4453061514970784
aF1.5707963267948983
aF0.6539306789855672
aF0.0
aa(lp554
F0.45186201013691374
aF1.5707963267948983
aF0.657230853806027
aF0.0
aa(lp555
F0.4584505638007954
aF1.5707963267948983
aF0.660469597297876
aF0.0
aa(lp556
F0.4650711955984619
aF1.5707963267948983
aF0.6636463958843422
aF0.0
aa(lp557
F0.4717232835591645
aF1.5707963267948983
aF0.6667607470332868
aF0.0
aa(lp558
F0.4784062007415457
aF1.5707963267948983
aF0.6698121592572974
aF0.0
aa(lp559
F0.48511931534513764
aF1.5707963267948983
aF0.6728001521136662
aF0.0
aa(lp560
F0.49186199081996307
aF1.5707963267948983
aF0.6757242562041768
aF0.0
aa(lp561
F0.49863358597748686
aF1.5707963267948983
aF0.6785840131753247
aF0.0
aa(lp562
F0.5054334551009276
aF1.5707963267948983
aF0.681378975718431
aF0.0
aa(lp563
F0.5122609480552143
aF1.5707963267948983
aF0.6841087075693366
aF0.0
aa(lp564
F0.519115410398058
aF1.5707963267948983
aF0.6867727835085304
aF0.0
aa(lp565
F0.525996183490463
aF1.5707963267948983
aF0.6893707893612131
aF0.0
aa(lp566
F0.5329026046067042
aF1.5707963267948983
aF0.691902321997155
aF0.0
aa(lp567
F0.5398340070448739
aF1.5707963267948983
aF0.6943669893309874
aF0.0
aa(lp568
F0.5467897202375696
aF1.5707963267948983
aF0.6967644103218404
aF0.0
aa(lp569
F0.5537690698623265
aF1.5707963267948983
aF0.6990942149735417
aF0.0
aa(lp570
F0.5607713779514683
aF1.5707963267948983
aF0.7013560443346805
aF0.0
aa(lp571
F0.5677959630038174
aF1.5707963267948983
aF0.7035495504981739
aF0.0
aa(lp572
F0.5748421400933452
aF1.5707963267948983
aF0.7056743966020775
aF0.0
aa(lp573
F0.581909220981558
aF1.5707963267948983
aF0.7077302568287678
aF0.0
aa(lp574
F0.5889965142265225
aF1.5707963267948983
aF0.7097168164053045
aF0.0
aa(lp575
F0.5961033252938961
aF1.5707963267948983
aF0.7116337716037364
aF0.0
aa(lp576
F0.6032289566671309
aF1.5707963267948983
aF0.7134808297403694
aF0.0
aa(lp577
F0.6103727079585965
aF1.5707963267948983
aF0.7152577091763135
aF0.0
aa(lp578
F0.6175338760184346
aF1.5707963267948983
aF0.716964139317362
aF0.0
aa(lp579
F0.6247117550473646
aF1.5707963267948983
aF0.7185998606140274
aF0.0
aa(lp580
F0.6319056367049853
aF1.5707963267948983
aF0.7201646245613773
aF0.0
aa(lp581
F0.6391148102214714
aF1.5707963267948983
aF0.7216581936991986
aF0.0
aa(lp582
F0.6463385625069833
aF1.5707963267948983
aF0.7230803416119613
aF0.0
aa(lp583
F0.653576178263755
aF1.5707963267948983
aF0.7244308529286414
aF0.0
aa(lp584
F0.6608269400946583
aF1.5707963267948983
aF0.7257095233231112
aF0.0
aa(lp585
F0.6680901286151126
aF1.5707963267948983
aF0.7269161595137703
aF0.0
aa(lp586
F0.6753650225623389
aF1.5707963267948983
aF0.7280505792636731
aF0.0
aa(lp587
F0.6826508989069779
aF1.5707963267948983
aF0.7291126113806712
aF0.0
aa(lp588
F0.6899470329627775
aF1.5707963267948983
aF0.7301020957169513
aF0.0
aa(lp589
F0.6972526984972092
aF1.5707963267948983
aF0.731018883169753
aF0.0
aa(lp590
F0.7045671678417449
aF1.5707963267948983
aF0.7318628356809143
aF0.0
aa(lp591
F0.7118897120029146
aF1.5707963267948983
aF0.7326338262365724
aF0.0
aa(lp592
F0.7192196007721776
aF1.5707963267948983
aF0.7333317388677898
aF0.0
aa(lp593
F0.7265561028362981
aF1.5707963267948983
aF0.7339564686504687
aF0.0
aa(lp594
F0.733898485888119
aF1.5707963267948983
aF0.7345079217049246
aF0.0
aa(lp595
F0.7412460167372359
aF1.5707963267948983
aF0.734986015196121
aF0.0
aa(lp596
F0.7485979614198612
aF1.5707963267948983
aF0.7353906773337044
aF0.0
aa(lp597
F0.755953585309129
aF1.5707963267948983
aF0.73572184737219
aF0.0
aa(lp598
F0.7633121532266927
aF1.5707963267948983
aF0.735979475610641
aF0.0
aa(lp599
F0.7706729295517363
aF1.5707963267948983
aF0.7361635233925625
aF0.0
aa(lp600
F0.7780351783329991
aF1.5707963267948983
aF0.7362739631063633
aF0.0
aa(lp601
F0.7853981633972467
aF1.5707963267948983
aF0.7363107781850644
aF0.0
aa(lp602
F0.7927611484616222
aF1.5707963267948983
aF0.7362739631063349
aF0.0
aa(lp603
F0.8001233972427428
aF1.5707963267948983
aF0.7361635233925483
aF0.0
aa(lp604
F0.8074841735679428
aF1.5707963267948983
aF0.7359794756105913
aF0.0
aa(lp605
F0.8148427414855206
aF1.5707963267948983
aF0.7357218473722043
aF0.0
aa(lp606
F0.8221983653749447
aF1.5707963267948983
aF0.7353906773337613
aF0.0
aa(lp607
F0.8295503100573001
aF1.5707963267948983
aF0.7349860151960641
aF0.0
aa(lp608
F0.8368978409065022
aF1.5707963267948983
aF0.734507921704882
aF0.0
aa(lp609
F0.8442402239584084
aF1.5707963267948983
aF0.7339564686504332
aF0.0
aa(lp610
F0.851576726022472
aF1.5707963267948983
aF0.7333317388677685
aF0.0
aa(lp611
F0.8589066147915929
aF1.5707963267948983
aF0.7326338262365155
aF0.0
aa(lp612
F0.8662291589528621
aF1.5707963267948983
aF0.7318628356808574
aF0.0
aa(lp613
F0.8735436282973978
aF1.5707963267948983
aF0.7310188831699236
aF0.0
aa(lp614
F0.880849293831929
aF1.5707963267948983
aF0.7301020957170437
aF0.0
aa(lp615
F0.8881454278875509
aF1.5707963267948983
aF0.7291126113806143
aF0.0
aa(lp616
F0.8954313042323889
aF1.5707963267948983
aF0.7280505792637086
aF0.0
aa(lp617
F0.9027061981797431
aF1.5707963267948983
aF0.7269161595137348
aF0.0
aa(lp618
F0.9099693866997995
aF1.5707963267948983
aF0.7257095233230899
aF0.0
aa(lp619
F0.9172201485309728
aF1.5707963267948983
aF0.7244308529286627
aF0.0
aa(lp620
F0.9244577642874106
aF1.5707963267948983
aF0.7230803416119329
aF0.0
aa(lp621
F0.9316815165731356
aF1.5707963267948983
aF0.721658193699156
aF0.0
aa(lp622
F0.9388906900894369
aF1.5707963267948983
aF0.7201646245614057
aF0.0
aa(lp623
F0.9460845717472495
aF1.5707963267948983
aF0.7185998606139776
aF0.0
aa(lp624
F0.9532624507760374
aF1.5707963267948983
aF0.7169641393173691
aF0.0
aa(lp625
F0.9604236188360034
aF1.5707963267948983
aF0.7152577091762993
aF0.0
aa(lp626
F0.9675673701273269
aF1.5707963267948983
aF0.7134808297404334
aF0.0
aa(lp627
F0.9746930015006399
aF1.5707963267948983
aF0.711633771603843
aF0.0
aa(lp628
F0.9817998125679992
aF1.5707963267948983
aF0.7097168164054466
aF0.0
aa(lp629
F0.9888871058129922
aF1.5707963267948983
aF0.7077302568288246
aF0.0
aa(lp630
F0.9959541867011268
aF1.5707963267948983
aF0.705674396602106
aF0.0
aa(lp631
F1.0030003637908749
aF1.5707963267948983
aF0.7035495504982094
aF0.0
aa(lp632
F1.0100249488430961
aF1.5707963267948983
aF0.7013560443345881
aF0.0
aa(lp633
F1.0170272569323942
aF1.5707963267948983
aF0.6990942149735133
aF0.0
aa(lp634
F1.0240066065569664
aF1.5707963267948983
aF0.6967644103219897
aF0.0
aa(lp635
F1.0309623197496904
aF1.5707963267948983
aF0.6943669893310158
aF0.0
aa(lp636
F1.0378937221880022
aF1.5707963267948983
aF0.6919023219971763
aF0.0
aa(lp637
F1.0448001433042151
aF1.5707963267948983
aF0.689370789361206
aF0.0
aa(lp638
F1.0516809163964496
aF1.5707963267948983
aF0.6867727835085446
aF0.0
aa(lp639
F1.0585353787395064
aF1.5707963267948983
aF0.6841087075694361
aF0.0
aa(lp640
F1.0653628716936652
aF1.5707963267948983
aF0.6813789757184452
aF0.0
aa(lp641
F1.0721627408169923
aF1.5707963267948983
aF0.67858401317541
aF0.0
aa(lp642
F1.0789343359745942
aF1.5707963267948983
aF0.6757242562041483
aF0.0
aa(lp643
F1.085677011449377
aF1.5707963267948983
aF0.6728001521136946
aF0.0
aa(lp644
F1.092390126053175
aF1.5707963267948983
aF0.6698121592574182
aF0.0
aa(lp645
F1.099073043235265
aF1.5707963267948983
aF0.6667607470333365
aF0.0
aa(lp646
F1.105725131195996
aF1.5707963267948983
aF0.6636463958843137
aF0.0
aa(lp647
F1.1123457629938116
aF1.5707963267948983
aF0.6604695972979044
aF0.0
aa(lp648
F1.118934316657743
aF1.5707963267948983
aF0.657230853806098
aF0.0
aa(lp649
F1.1254901752976423
aF1.5707963267948983
aF0.6539306789855743
aF0.0
aa(lp650
F1.1320127272138052
aF1.5707963267948983
aF0.6505695974579453
aF0.0
aa(lp651
F1.138501366008711
aF1.5707963267948983
aF0.6471481448892575
aF0.0
aa(lp652
F1.1449554906960486
aF1.5707963267948983
aF0.6436668679901629
aF0.0
aa(lp653
F1.1513745058119724
aF1.5707963267948983
aF0.6401263245162028
aF0.0
aa(lp654
F1.1577578215258484
aF1.5707963267948983
aF0.6365270832673247
aF0.0
aa(lp655
F1.1641048537496772
aF1.5707963267948983
aF0.6328697240884367
aF0.0
aa(lp656
F1.1704150242497917
aF1.5707963267948983
aF0.6291548378687111
aF0.0
aa(lp657
F1.176687760755513
aF1.5707963267948983
aF0.6253830265423801
aF0.0
aa(lp658
F1.1829224970719991
aF1.5707963267948983
aF0.621554903088267
aF0.0
aa(lp659
F1.1891186731889434
aF1.5707963267948983
aF0.6176710915293597
aF0.0
aa(lp660
F1.1952757353913626
aF1.5707963267948983
aF0.6137322269342746
aF0.0
aa(lp661
F1.2013931363700578
aF1.5707963267948983
aF0.6097389554151391
aF0.0
aa(lp662
F1.2074703353327152
aF1.5707963267948983
aF0.6056919341295384
aF0.0
aa(lp663
F1.2135067981128458
aF1.5707963267948983
aF0.6015918312797481
aF0.0
aa(lp664
F1.2195019972827623
aF1.5707963267948983
aF0.5974393261120383
aF0.0
aa(lp665
F1.2254554122603594
aF1.5707963267948983
aF0.5932351089182504
aF0.0
aa(lp666
F1.231366529423937
aF1.5707963267948983
aF0.5889798810339926
aF0.0
aa(lp667
F1.2372348422187116
aF1.5707963267948983
aF0.5846743548401889
aF0.0
aa(lp668
F1.2430598512700186
aF1.5707963267948983
aF0.580319253761985
aF0.0
aa(lp669
F1.2488410644914865
aF1.5707963267948983
aF0.5759153122694727
aF0.0
aa(lp670
F1.254577997197785
aF1.5707963267948983
aF0.5714632758773774
aF0.0
aa(lp671
F1.26027017221341
aF1.5707963267948983
aF0.5669639011448879
aF0.0
aa(lp672
F1.2659171199836408
aF1.5707963267948983
aF0.5624179556761533
aF0.0
aa(lp673
F1.2715183786853146
aF1.5707963267948983
aF0.5578262181197573
aF0.0
aa(lp674
F1.2770734943368183
aF1.5707963267948983
aF0.5531894781688322
aF0.0
aa(lp675
F1.282582020908734
aF1.5707963267948983
aF0.5485085365614708
aF0.0
aa(lp676
F1.2880435204341154
aF1.5707963267948983
aF0.5437842050805415
aF0.0
aa(lp677
F1.2934575631188636
aF1.5707963267948983
aF0.5390173065530206
aF0.0
aa(lp678
F1.2988237274535095
aF1.5707963267948983
aF0.5342086748510866
aF0.0
aa(lp679
F1.3041416003205484
aF1.5707963267948983
aF0.5293591548912246
aF0.0
aa(lp680
F1.3094107771087806
aF1.5707963267948983
aF0.5244696026345537
aF0.0
aa(lp681
F1.314630861820973
aF1.5707963267948983
aF0.5195408850873804
aF0.0
aa(lp682
F1.3198014671853002
aF1.5707963267948983
aF0.5145738803000484
aF0.0
aa(lp683
F1.3249222147653086
aF1.5707963267948983
aF0.5095694773680322
aF0.0
aa(lp684
F1.3299927350712153
aF1.5707963267948983
aF0.5045285764310989
aF0.0
aa(lp685
F1.335012667670071
aF1.5707963267948983
aF0.4994520886737206
aF0.0
aa(lp686
F1.3399816612950417
aF1.5707963267948983
aF0.4943409363254858
aF0.0
aa(lp687
F1.3448993739575315
aF1.5707963267948983
aF0.4891960526599348
aF0.0
aa(lp688
F1.349765473056891
aF1.5707963267948983
aF0.4840183819958952
aF0.0
aa(lp689
F1.3545796354907793
aF1.5707963267948983
aF0.4788088796965866
aF0.0
aa(lp690
F1.3593415477656947
aF1.5707963267948983
aF0.4735685121697344
aF0.0
aa(lp691
F1.3640509061069679
aF1.5707963267948983
aF0.46829825686808135
aF0.0
aa(lp692
F1.3687074165708282
aF1.5707963267948983
aF0.4629991022887907
aF0.0
aa(lp693
F1.3733107951524346
aF1.5707963267948983
aF0.4576720479737162
aF0.0
aa(lp694
F1.3778607678986816
aF1.5707963267948983
aF0.45231810450930254
aF0.0
aa(lp695
F1.3823570710162585
aF1.5707963267948983
aF0.44693829352699765
aF0.0
aa(lp696
F1.3867994509848813
aF1.5707963267948983
aF0.4415336477025136
aF0.0
aa(lp697
F1.3911876646656935
aF1.5707963267948983
aF0.4361052107563239
aF0.0
aa(lp698
F1.3955214794110304
aF1.5707963267948983
aF0.4306540374536496
aF0.0
aa(lp699
F1.3998006731780492
aF1.5707963267948983
aF0.4251811936045726
aF0.0
aa(lp700
F1.4040250346360494
aF1.5707963267948983
aF0.419687756063297
aF0.0
aa(lp701
F1.4081943632787102
aF1.5707963267948983
aF0.4141748127292857
aF0.0
aa(lp702
F1.4123084695334285
aF1.5707963267948983
aF0.4086434625458679
aF0.0
aa(lp703
F1.4163671748723061
aF1.5707963267948983
aF0.40309481550214343
aF0.0
aa(lp704
F1.4203703119227384
aF1.5707963267948983
aF0.397529992630993
aF0.0
aa(lp705
F1.424317724577719
aF1.5707963267948983
aF0.3919501260101015
aF0.0
aa(lp706
F1.4282092681062295
aF1.5707963267948983
aF0.3863563587622565
aF0.0
aa(lp707
F1.4320448092639708
aF1.5707963267948983
aF0.3807498450543392
aF0.0
aa(lp708
F1.435824226402218
aF1.5707963267948983
aF0.3751317500983333
aF0.0
aa(lp709
F1.4395474095813086
aF1.5707963267948983
aF0.36950325015067165
aF0.0
aa(lp710
F1.443214260678161
aF1.5707963267948983
aF0.3638655325124347
aF0.0
aa(lp711
F1.446824693498968
aF1.5707963267948983
aF0.35821979552939354
aF0.0
aa(lp712
F1.4503786338877376
aF1.5707963267948983
aF0.35256724859218025
aF0.0
aa(lp713
F1.4538760198378213
aF1.5707963267948983
aF0.34690911213563425
aF0.0
aa(lp714
F1.4573168016024738
aF1.5707963267948983
aF0.3412466176396123
aF0.0
aa(lp715
F1.460700941804447
aF1.5707963267948983
aF0.33558100762873266
aF0.0
aa(lp716
F1.4640284155472898
aF1.5707963267948983
aF0.32991353567187787
aF0.0
aa(lp717
F1.4672992105255105
aF1.5707963267948983
aF0.32424546638311824
aF0.0
aa(lp718
F1.470513327134654
aF1.5707963267948983
aF0.31857807542043304
aF0.0
aa(lp719
F1.4736707785824592
aF1.5707963267948983
aF0.312912649487302
aF0.0
aa(lp720
F1.4767715909992205
aF1.5707963267948983
aF0.3072504863312133
aF0.0
aa(lp721
F1.4798158035470124
aF1.5707963267948983
aF0.30159289474454454
aF0.0
aa(lp722
F1.482803468530875
aF1.5707963267948983
aF0.2959411945648469
aF0.0
aa(lp723
F1.4857346515111942
aF1.5707963267948983
aF0.29029671667314005
aF0.0
aa(lp724
F1.4886094314105378
aF1.5707963267948983
aF0.2846608029963562
aF0.0
aa(lp725
F1.491427900627258
aF1.5707963267948983
aF0.2790348065053223
aF0.0
aa(lp726
F1.4941901651434648
aF1.5707963267948983
aF0.2734200912157405
aF0.0
aa(lp727
F1.4968963446376051
aF1.5707963267948983
aF0.267818032188174
aF0.0
aa(lp728
F1.4995465725936867
aF1.5707963267948983
aF0.26223001552739333
aF0.0
aa(lp729
F1.5021409964120949
aF1.5707963267948983
aF0.2566574383832858
aF0.0
aa(lp730
F1.504679777519243
aF1.5707963267948983
aF0.25110170895013084
aF0.0
aa(lp731
F1.5071630914797538
aF1.5707963267948983
aF0.24556424646718256
aF0.0
aa(lp732
F1.5095911281049155
aF1.5707963267948983
aF0.2400464812177745
aF0.0
aa(lp733
F1.5119640915647778
aF1.5707963267948983
aF0.23454985453034283
aF0.0
aa(lp734
F1.5142822004974619
aF1.5707963267948983
aF0.22907581877825578
aF0.0
aa(lp735
F1.5165456881199475
aF1.5707963267948983
aF0.22362583737864838
aF0.0
aa(lp736
F1.51875480233997
aF1.5707963267948983
aF0.2182013847941846
aF0.0
aa(lp737
F1.5209098058625727
aF1.5707963267948983
aF0.2128039465318068
aF0.0
aa(lp738
F1.5230109763055282
aF1.5707963267948983
aF0.20743501914316198
aF0.0
aa(lp739
F1.5250586063057483
aF1.5707963267948983
aF0.2020961102245451
aF0.0
aa(lp740
F1.5270530036323464
aF1.5707963267948983
aF0.1967887384169842
aF0.0
aa(lp741
F1.528994491295549
aF1.5707963267948983
aF0.19151443340589935
aF0.0
aa(lp742
F1.530883407657683
aF1.5707963267948983
aF0.18627473592209753
aF0.0
aa(lp743
F1.532720106543934
aF1.5707963267948983
aF0.18107119773989666
aF0.0
aa(lp744
F1.5345049573518565
aF1.5707963267948983
aF0.17590538167942782
aF0.0
aa(lp745
F1.5362383451629853
aF1.5707963267948983
aF0.1707788616047594
aF0.0
aa(lp746
F1.537920670852202
aF1.5707963267948983
aF0.16569322242480666
aF0.0
aa(lp747
F1.539552351199717
aF1.5707963267948983
aF0.16065006009341687
aF0.0
aa(lp748
F1.5411338189989863
aF1.5707963267948983
aF0.1556509816087157
aF0.0
aa(lp749
F1.5426655231702
aF1.5707963267948983
aF0.15069760501333462
aF0.0
aa(lp750
F1.5441479288683126
aF1.5707963267948983
aF0.14579155939549082
aF0.0
aa(lp751
F1.5455815175938596
aF1.5707963267948983
aF0.14093448488696936
aF0.0
aa(lp752
F1.5469667873055357
aF1.5707963267948983
aF0.13612803266482842
aF0.0
aa(lp753
F1.548304252527629
aF1.5707963267948983
aF0.13137386495077408
aF0.0
aa(lp754
F1.5495944444622864
aF1.5707963267948983
aF0.12667365501079075
aF0.0
aa(lp755
F1.5508379111005297
aF1.5707963267948983
aF0.12202908715599392
aF0.0
aa(lp756
F1.552035217328978
aF1.5707963267948983
aF0.11744185674203322
aF0.0
aa(lp757
F1.5531869450466331
aF1.5707963267948983
aF0.11291367016877984
aF0.0
aa(lp758
F1.554293693268903
aF1.5707963267948983
aF0.1084462448813781
aF0.0
aa(lp759
F1.5553560782421698
aF1.5707963267948983
aF0.10404130936939282
aF0.0
aa(lp760
F1.556374733552758
aF1.5707963267948983
aF0.09970060316689455
aF0.0
aa(lp761
F1.5573503102373536
aF1.5707963267948983
aF0.09542587685274384
aF0.0
aa(lp762
F1.558283476893763
aF1.5707963267948983
aF0.0912188920507333
aF0.0
aa(lp763
F1.5591749197913032
aF1.5707963267948983
aF0.08708142142882025
aF0.0
aa(lp764
F1.5600253429807367
aF1.5707963267948983
aF0.08301524870020671
aF0.0
aa(lp765
F1.5608354684057417
aF1.5707963267948983
aF0.07902216862180467
aF0.0
aa(lp766
F1.5616060360136146
aF1.5707963267948983
aF0.07510398699622556
aF0.0
aa(lp767
F1.5623378038624196
aF1.5707963267948983
aF0.07126252067024552
aF0.0
aa(lp768
F1.5630315482362107
aF1.5707963267948983
aF0.06749959753562962
aF0.0
aa(lp769
F1.5636880637524655
aF1.5707963267948983
aF0.06381705652793812
aF0.0
aa(lp770
F1.5643081634727878
aF1.5707963267948983
aF0.06021674762837392
aF0.0
aa(lp771
F1.5648926790139797
aF1.5707963267948983
aF0.0567005318626741
aF0.0
aa(lp772
F1.5654424606593693
aF1.5707963267948983
aF0.053270281300541455
aF0.0
aa(lp773
F1.5659583774665577
aF1.5707963267948983
aF0.04992787905692353
aF0.0
aa(lp774
F1.5664413173805656
aF1.5707963267948983
aF0.046675219291415715
aF0.0
aa(lp775
F1.5668921873435693
aF1.5707963267948983
aF0.04351420720797705
aF0.0
aa(lp776
F1.5673119134035574
aF1.5707963267948983
aF0.040446759055726034
aF0.0
aa(lp777
F1.5677014408274772
aF1.5707963267948983
aF0.037474802127519524
aF0.0
aa(lp778
F1.5680617342098344
aF1.5707963267948983
aF0.0346002747623686
aF0.0
aa(lp779
F1.5683937775845038
aF1.5707963267948983
aF0.03182512634219847
aF0.0
aa(lp780
F1.5686985745335278
aF1.5707963267948983
aF0.029151317294775936
aF0.0
aa(lp781
F1.5689771482986998
aF1.5707963267948983
aF0.026580819092430374
aF0.0
aa(lp782
F1.569230541892125
aF1.5707963267948983
aF0.024115614251883244
aF0.0
aa(lp783
F1.5694598182055302
aF1.5707963267948983
aF0.02175769633413438
aF0.0
aa(lp784
F1.5696660601226995
aF1.5707963267948983
aF0.01950906994579782
aF0.0
aa(lp785
F1.5698503706272504
aF1.5707963267948983
aF0.017371750737339653
aF0.0
aa(lp786
F1.5700138729156379
aF1.5707963267948983
aF0.015347765404214897
aF0.0
aa(lp787
F1.5701577105061801
aF1.5707963267948983
aF0.013439151686554851
aF0.0
aa(lp788
F1.5702830473494487
aF1.5707963267948983
aF0.011647958369081834
aF0.0
aa(lp789
F1.5703910679396813
aF1.5707963267948983
aF0.009976245281137608
aF0.0
aa(lp790
F1.5704829774242057
aF1.5707963267948983
aF0.008426083296910747
aF0.0
aa(lp791
F1.5705600017147958
aF1.5707963267948983
aF0.006999554335209268
aF0.0
aa(lp792
F1.5706233875962425
aF1.5707963267948983
aF0.005698751359091148
aF0.0
aa(lp793
F1.5706744028403818
aF1.5707963267948983
aF0.004525778376745393
aF0.0
aa(lp794
F1.5707143363126193
aF1.5707963267948983
aF0.003482750441122562
aF0.0
aa(lp795
F1.5707444980853893
aF1.5707963267948983
aF0.0025717936491673754
aF0.0
aa(lp796
F1.570766219545476
aF1.5707963267948983
aF0.0017950451432113823
aF0.0
aa(lp797
F1.5707808535084382
aF1.5707963267948983
aF0.0011546531098929336
aF0.0
aa(lp798
F1.570789774325533
aF1.5707963267948983
aF0.0006527767805266649
aF0.0
aa(lp799
F1.570794377996208
aF1.5707963267948983
aF0.0002915864312171834
aF0.0
aa(lp800
F1.5707960822773543
aF1.5707963267948983
aF7.326338260327248e-05
aF0.0
aa(lp801
F1.5707963267948344
aF1.5707963267948983
aF-1.1368683772161603e-13
aF0.0
aa(lp802
F1.5707964083009358
aF1.5707964083009358
aF2.442112755574044e-05
aF2.442112755574044e-05
aa(lp803
F1.5707969763947602
aF1.5707969763947602
aF9.719547708186838e-05
aF9.719547708186838e-05
aa(lp804
F1.5707985109521019
aF1.5707985109521019
aF0.00021759226005002574
aF0.00021759226005002574
aa(lp805
F1.570801484557009
aF1.570801484557009
aF0.0003848843700211546
aF0.0003848843700211546
aa(lp806
F1.570806362545568
aF1.570806362545568
aF0.0005983483809330892
aF0.0005983483809330892
aa(lp807
F1.5708136030314392
aF1.5708136030314392
aF0.0008572645497793019
aF0.0008572645497793019
aa(lp808
F1.5708236569560512
aF1.5708236569560512
aF0.0011609168136317294
aF0.0011609168136317294
aa(lp809
F1.5708369681131273
aF1.5708369681131273
aF0.001508592792191621
aF0.001508592792191621
aa(lp810
F1.5708539731950424
aF1.5708539731950424
aF0.0018995837862405551
aF0.0018995837862405551
aa(lp811
F1.5708751018223097
aF1.5708751018223097
aF0.0023331847783936155
aF0.0023331847783936155
aa(lp812
F1.5709007765851766
aF1.5709007765851766
aF0.0028086944322893714
aF0.0028086944322893714
aa(lp813
F1.5709314130804017
aF1.5709314130804017
aF0.0033254150936414817
aF0.0033254150936414817
aa(lp814
F1.5709674199436279
aF1.5709674199436279
aF0.003882652789656049
aF0.003882652789656049
aa(lp815
F1.5710091988913746
aF1.5710091988913746
aF0.004479717228775826
aF0.004479717228775826
aa(lp816
F1.5710571447549881
aF1.5710571447549881
aF0.005115921801348122
aF0.005115921801348122
aa(lp817
F1.5711116455182008
aF1.5711116455182008
aF0.005790583578956898
aF0.005790583578956898
aa(lp818
F1.5711730823527859
aF1.5711730823527859
aF0.006503023315161727
aF0.006503023315161727
aa(lp819
F1.5712418296581632
aF1.5712418296581632
aF0.00725256544460251
aF0.00725256544460251
aa(lp820
F1.5713182550963012
aF1.5713182550963012
aF0.00803853808382371
aF0.00803853808382371
aa(lp821
F1.5714027196272724
aF1.5714027196272724
aF0.00886027303084802
aF0.00886027303084802
aa(lp822
F1.571495577548916
aF1.571495577548916
aF0.009717105764863732
aF0.009717105764863732
aa(lp823
F1.5715971765321655
aF1.5715971765321655
aF0.010608375447347385
aF0.010608375447347385
aa(lp824
F1.5717078576572732
aF1.5717078576572732
aF0.011533424920600055
aF0.011533424920600055
aa(lp825
F1.5718279554512549
aF1.5718279554512549
aF0.012491600709111594
aF0.012491600709111594
aa(lp826
F1.571957797926018
aF1.571957797926018
aF0.013482253018409551
aF0.013482253018409551
aa(lp827
F1.5720977066128228
aF1.5720977066128228
aF0.014504735735812346
aF0.014504735735812346
aa(lp828
F1.5722479965998275
aF1.5722479965998275
aF0.015558406430358218
aF0.015558406430358218
aa(lp829
F1.5724089765709408
aF1.5724089765709408
aF0.016642626352222578
aF0.016642626352222578
aa(lp830
F1.5725809488405247
aF1.5725809488405247
aF0.017756760433442764
aF0.017756760433442764
aa(lp831
F1.5727642093887368
aF1.5727642093887368
aF0.01890017728739224
aF0.01890017728739224
aa(lp832
F1.5729590479025575
aF1.5729590479025575
aF0.02007224920943429
aF0.02007224920943429
aa(lp833
F1.5731657478092274
aF1.5731657478092274
aF0.021272352175927267
aF0.021272352175927267
aa(lp834
F1.5733845863148588
aF1.5733845863148588
aF0.02249986584511987
aF0.02249986584511987
aa(lp835
F1.5736158344390248
aF1.5736158344390248
aF0.0237541735568243
aF0.0237541735568243
aa(lp836
F1.573859757056141
aF1.573859757056141
aF0.02503466233194729
aF0.02503466233194729
aa(lp837
F1.5741166129250246
aF1.5741166129250246
aF0.02634072287384015
aF0.02634072287384015
aa(lp838
F1.5743866547336296
aF1.5743866547336296
aF0.027671749566493986
aF0.027671749566493986
aa(lp839
F1.5746701291296432
aF1.5746701291296432
aF0.029027140476244995
aF0.029027140476244995
aa(lp840
F1.5749672767623366
aF1.5749672767623366
aF0.030406297350040745
aF0.030406297350040745
aa(lp841
F1.5752783323145252
aF1.5752783323145252
aF0.03180862561764286
aF0.03180862561764286
aa(lp842
F1.5756035245426858
aF1.5756035245426858
aF0.033233534388898534
aF0.033233534388898534
aa(lp843
F1.5759430763129956
aF1.5759430763129956
aF0.034680436456355324
aF0.034680436456355324
aa(lp844
F1.5762972046371146
aF1.5762972046371146
aF0.03614874829376902
aF0.03614874829376902
aa(lp845
F1.5766661207111952
aF1.5766661207111952
aF0.03763789005616047
aF0.03763789005616047
aa(lp846
F1.5770500299504135
aF1.5770500299504135
aF0.039147285580483526
aF0.039147285580483526
aa(lp847
F1.5774491320272546
aF1.5774491320272546
aF0.04067636238518446
aF0.04067636238518446
aa(lp848
F1.5778636209064132
aF1.5778636209064132
aF0.04222455167025885
aF0.04222455167025885
aa(lp849
F1.5782936848838176
aF1.5782936848838176
aF0.04379128831675416
aF0.04379128831675416
aa(lp850
F1.5787395066251122
aF1.5787395066251122
aF0.04537601088829035
aF0.04537601088829035
aa(lp851
F1.5792012631957562
aF1.5792012631957562
aF0.046978161628928206
aF0.046978161628928206
aa(lp852
F1.5796791261040823
aF1.5796791261040823
aF0.048597186465073605
aF0.048597186465073605
aa(lp853
F1.5801732613373645
aF1.5801732613373645
aF0.05023253500435487
aF0.05023253500435487
aa(lp854
F1.580683829393422
aF1.580683829393422
aF0.051883660536248044
aF0.051883660536248044
aa(lp855
F1.5812109853272887
aF1.5812109853272887
aF0.05355002003101106
aF0.05355002003101106
aa(lp856
F1.5817548787760245
aF1.5817548787760245
aF0.05523107414163064
aF0.05523107414163064
aa(lp857
F1.582315654006095
aF1.582315654006095
aF0.05692628720150594
aF0.05692628720150594
aa(lp858
F1.582893449942901
aF1.582893449942901
aF0.05863512722640962
aF0.05863512722640962
aa(lp859
F1.5834884002123317
aF1.5834884002123317
aF0.06035706591326573
aF0.06035706591326573
aa(lp860
F1.5841006331742733
aF1.5841006331742733
aF0.062091578640533385
aF0.062091578640533385
aa(lp861
F1.584730271961888
aF1.584730271961888
aF0.06383814446850522
aF0.06383814446850522
aa(lp862
F1.5853774345158342
aF1.5853774345158342
aF0.06559624613893789
aF0.06559624613893789
aa(lp863
F1.586042233624994
aF1.586042233624994
aF0.06736537007482468
aF0.06736537007482468
aa(lp864
F1.586724776958789
aF1.586724776958789
aF0.06914500638082188
aF0.06914500638082188
aa(lp865
F1.5874251671057777
aF1.5874251671057777
aF0.07093464884388823
aF0.07093464884388823
aa(lp866
F1.5881435016136152
aF1.5881435016136152
aF0.07273379493129539
aF0.07273379493129539
aa(lp867
F1.5888798730200904
aF1.5888798730200904
aF0.074541945792717
aF0.074541945792717
aa(lp868
F1.5896343688946502
aF1.5896343688946502
aF0.07635860625933333
aF0.07635860625933333
aa(lp869
F1.5904070718723915
aF1.5904070718723915
aF0.07818328484336234
aF0.07818328484336234
aa(lp870
F1.5911980596915214
aF1.5911980596915214
aF0.08001549373911132
aF0.08001549373911132
aa(lp871
F1.5920074052340283
aF1.5920074052340283
aF0.08185474882218102
aF0.08185474882218102
aa(lp872
F1.5928351765541606
aF1.5928351765541606
aF0.08370056964992045
aF0.08370056964992045
aa(lp873
F1.5936814369225658
aF1.5936814369225658
aF0.08555247946104316
aF0.08555247946104316
aa(lp874
F1.59454624486213
aF1.59454624486213
aF0.08741000517565567
aF0.08741000517565567
aa(lp875
F1.5954296541808048
aF1.5954296541808048
aF0.08927267739595379
aF0.08927267739595379
aa(lp876
F1.5963317140124218
aF1.5963317140124218
aF0.09114003040515684
aF0.09114003040515684
aa(lp877
F1.5972524688507974
aF1.5972524688507974
aF0.09301160216836024
aF0.09301160216836024
aa(lp878
F1.5981919585898936
aF1.5981919585898936
aF0.09488693433212347
aF0.09488693433212347
aa(lp879
F1.5991502185564457
aF1.5991502185564457
aF0.09676557222425686
aF0.09676557222425686
aa(lp880
F1.6001272795504633
aF1.6001272795504633
aF0.09864706485481634
aF0.09864706485481634
aa(lp881
F1.601123167877887
aF1.601123167877887
aF0.10053096491478186
aF0.10053096491478186
aa(lp882
F1.6021379053937608
aF1.6021379053937608
aF0.10241682877689584
aF0.10241682877689584
aa(lp883
F1.6031715095326717
aF1.6031715095326717
aF0.10430421649564892
aF0.10430421649564892
aa(lp884
F1.6042239933484836
aF1.6042239933484836
aF0.10619269180682522
aF0.10619269180682522
aa(lp885
F1.60529536555174
aF1.60529536555174
aF0.10808182212765871
aF0.10808182212765871
aa(lp886
F1.6063856305442812
aF1.6063856305442812
aF0.10997117855723104
aF0.10997117855723104
aa(lp887
F1.6074947884581263
aF1.6074947884581263
aF0.11186033587623001
aF0.11186033587623001
aa(lp888
F1.6086228351931027
aF1.6086228351931027
aF0.11374887254639532
aF0.11374887254639532
aa(lp889
F1.609769762447172
aF1.609769762447172
aF0.11563637071178334
aF0.11563637071178334
aa(lp890
F1.6109355577645204
aF1.6109355577645204
aF0.1175224161971471
aF0.1175224161971471
aa(lp891
F1.6121202045604548
aF1.6121202045604548
aF0.11940659850955626
aF0.11940659850955626
aa(lp892
F1.6133236821674473
aF1.6133236821674473
aF0.12128851083741665
aF0.12128851083741665
aa(lp893
F1.614545965866398
aF1.614545965866398
aF0.12316775005010072
aF0.12316775005010072
aa(lp894
F1.6157870269265686
aF1.6157870269265686
aF0.1250439166992976
aF0.1250439166992976
aa(lp895
F1.6170468326388345
aF1.6170468326388345
aF0.12691661501807516
aF0.12691661501807516
aa(lp896
F1.6183253463580343
aF1.6183253463580343
aF0.12878545292056742
aF0.12878545292056742
aa(lp897
F1.6196225275344318
aF1.6196225275344318
aF0.13065004200322505
aF0.13065004200322505
aa(lp898
F1.6209383317525976
aF1.6209383317525976
aF0.13250999754356485
aF0.13250999754356485
aa(lp899
F1.62227271076938
aF1.62227271076938
aF0.13436493850045395
aF0.13436493850045395
aa(lp900
F1.623625612549148
aF1.623625612549148
aF0.13621448751517562
aF0.13621448751517562
aa(lp901
F1.6249969813011091
aF1.6249969813011091
aF0.13805827090965295
aF0.13805827090965295
aa(lp902
F1.626386757514382
aF1.626386757514382
aF0.1398959186876425
aF0.1398959186876425
aa(lp903
F1.6277948780005431
aF1.6277948780005431
aF0.14172706453472017
aF0.14172706453472017
aa(lp904
F1.6292212759233564
aF1.6292212759233564
aF0.14355134581778373
aF0.14355134581778373
aa(lp905
F1.630665880837995
aF1.630665880837995
aF0.14536840358532288
aF0.14536840358532288
aa(lp906
F1.6321286187317412
aF1.6321286187317412
aF0.14717788256749031
aF0.14717788256749031
aa(lp907
F1.6336094120547955
aF1.6336094120547955
aF0.1489794311755901
aF0.1489794311755901
aa(lp908
F1.6351081797604934
aF1.6351081797604934
aF0.15077270150300137
aF0.15077270150300137
aa(lp909
F1.6366248373427652
aF1.6366248373427652
aF0.15255734932449627
aF0.15255734932449627
aa(lp910
F1.6381592968696168
aF1.6381592968696168
aF0.15433303409622567
aF0.15433303409622567
aa(lp911
F1.6397114670248243
aF1.6397114670248243
aF0.1560994189558471
aF0.1560994189558471
aa(lp912
F1.6412812531385157
aF1.6412812531385157
aF0.15785617072309321
aF0.15785617072309321
aa(lp913
F1.6428685572300594
aF1.6428685572300594
aF0.15960295989864903
aF0.15960295989864903
aa(lp914
F1.644473278041147
aF1.644473278041147
aF0.16133946066508997
aF0.16133946066508997
aa(lp915
F1.6460953110746175
aF1.6460953110746175
aF0.16306535088648388
aF0.16306535088648388
aa(lp916
F1.6477345486290176
aF1.6477345486290176
aF0.16478031210836264
aF0.16478031210836264
aa(lp917
F1.649390879836801
aF1.649390879836801
aF0.16648402955779318
aF0.16648402955779318
aa(lp918
F1.6510641907029253
aF1.6510641907029253
aF0.1681761921434628
aF0.1681761921434628
aa(lp919
F1.6527543641387012
aF1.6527543641387012
aF0.16985649245583545
aF0.16985649245583545
aa(lp920
F1.6544612799985714
aF1.6544612799985714
aF0.17152462676673963
aF0.17152462676673963
aa(lp921
F1.6561848151196727
aF1.6561848151196727
aF0.17318029502918364
aF0.17318029502918364
aa(lp922
F1.6579248433575628
aF1.6579248433575628
aF0.1748232008780093
aF0.1748232008780093
aa(lp923
F1.6596812356196722
aF1.6596812356196722
aF0.17645305163023295
aF0.17645305163023295
aa(lp924
F1.661453859909102
aF1.661453859909102
aF0.1780695582835392
aF0.1780695582835392
aa(lp925
F1.6632425813536713
aF1.6632425813536713
aF0.17967243551751721
aF0.17967243551751721
aa(lp926
F1.6650472622494306
aF1.6650472622494306
aF0.1812614016934475
aF0.1812614016934475
aa(lp927
F1.6668677620910728
aF1.6668677620910728
aF0.18283617885366255
aF0.18283617885366255
aa(lp928
F1.6687039376142252
aF1.6687039376142252
aF0.1843964927227688
aF0.1843964927227688
aa(lp929
F1.6705556428317436
aF1.6705556428317436
aF0.1859420727064247
aF0.1859420727064247
aa(lp930
F1.672422729065346
aF1.672422729065346
aF0.18747265189199425
aF0.18747265189199425
aa(lp931
F1.674305044989211
aF1.674305044989211
aF0.1889879670480923
aF0.1889879670480923
aa(lp932
F1.6762024366614128
aF1.6762024366614128
aF0.19048775862572143
aF0.19048775862572143
aa(lp933
F1.6781147475625744
aF1.6781147475625744
aF0.19197177075635352
aF0.19197177075635352
aa(lp934
F1.6800418186365391
aF1.6800418186365391
aF0.1934397512539192
aF0.1934397512539192
aa(lp935
F1.681983488320384
aF1.681983488320384
aF0.19489145161318788
aF0.19489145161318788
aa(lp936
F1.6839395925856024
aF1.6839395925856024
aF0.19632662701104664
aF0.19632662701104664
aa(lp937
F1.6859099649730638
aF1.6859099649730638
aF0.1977450363059745
aF0.1977450363059745
aa(lp938
F1.6878944366326891
aF1.6878944366326891
aF0.19914644203728926
aF0.19914644203728926
aa(lp939
F1.6898928363554546
aF1.6898928363554546
aF0.20053061042632692
aF0.20053061042632692
aa(lp940
F1.691904990616166
aF1.691904990616166
aF0.2018973113764133
aF0.2018973113764133
aa(lp941
F1.6939307236033585
aF1.6939307236033585
aF0.20324631847164198
aF0.20324631847164198
aa(lp942
F1.695969857263293
aF1.695969857263293
aF0.20457740897788312
aF0.20457740897788312
aa(lp943
F1.6980222113308798
aF1.6980222113308798
aF0.20589036384298254
aF0.20589036384298254
aa(lp944
F1.7000876033688712
aF1.7000876033688712
aF0.20718496769610795
aF0.20718496769610795
aa(lp945
F1.7021658488081925
aF1.7021658488081925
aF0.2084610088472374
aF0.2084610088472374
aa(lp946
F1.704256760976989
aF1.704256760976989
aF0.20971827928941877
aF0.20971827928941877
aa(lp947
F1.706360151143599
aF1.706360151143599
aF0.2109565746961124
aF0.2109565746961124
aa(lp948
F1.7084758285514283
aF1.7084758285514283
aF0.2121756944223847
aF0.2121756944223847
aa(lp949
F1.7106036004558405
aF1.7106036004558405
aF0.21337544150514987
aF0.21337544150514987
aa(lp950
F1.7127432721617026
aF1.7127432721617026
aF0.21455562266329764
aF0.21455562266329764
aa(lp951
F1.714894647056866
aF1.714894647056866
aF0.21571604829645707
aF0.21571604829645707
aa(lp952
F1.7170575266559922
aF1.7170575266559922
aF0.2168565324858207
aF0.2168565324858207
aa(lp953
F1.7192317106278665
aF1.7192317106278665
aF0.21797689299505407
aF0.21797689299505407
aa(lp954
F1.7214169968408441
aF1.7214169968408441
aF0.21907695126840565
aF0.21907695126840565
aa(lp955
F1.72361318139599
aF1.72361318139599
aF0.2201565324323127
aF0.2201565324323127
aa(lp956
F1.7258200586611565
aF1.7258200586611565
aF0.22121546529456282
aF0.22121546529456282
aa(lp957
F1.7280374213150935
aF1.7280374213150935
aF0.2222535823443934
aF0.2222535823443934
aa(lp958
F1.730265060375956
aF1.730265060375956
aF0.22327071975243484
aF0.22327071975243484
aa(lp959
F1.732502765243197
aF1.732502765243197
aF0.2242667173711368
aF0.2242667173711368
aa(lp960
F1.734750323735085
aF1.734750323735085
aF0.2252414187346119
aF0.2252414187346119
aa(lp961
F1.7370075221205923
aF1.7370075221205923
aF0.22619467105846525
aF0.22619467105846525
aa(lp962
F1.739274145162284
aF1.739274145162284
aF0.22712632523936804
aF0.22712632523936804
aa(lp963
F1.7415499761469277
aF1.7415499761469277
aF0.22803623585625132
aF0.22803623585625132
aa(lp964
F1.7438347969280983
aF1.7438347969280983
aF0.22892426116933962
aF0.22892426116933962
aa(lp965
F1.7461283879583505
aF1.7461283879583505
aF0.22979026312032147
aF0.22979026312032147
aa(lp966
F1.7484305283306867
aF1.7484305283306867
aF0.23063410733237788
aF0.23063410733237788
aa(lp967
F1.750740995810304
aF1.750740995810304
aF0.2314556631102107
aF0.2314556631102107
aa(lp968
F1.7530595668745832
aF1.7530595668745832
aF0.23225480344055427
aF0.23225480344055427
aa(lp969
F1.7553860167496396
aF1.7553860167496396
aF0.23303140499101005
aF0.23303140499101005
aa(lp970
F1.7577201194452527
aF1.7577201194452527
aF0.23378534811146778
aF0.23378534811146778
aa(lp971
F1.7600616477961353
aF1.7600616477961353
aF0.23451651683251384
aF0.23451651683251384
aa(lp972
F1.7624103734928553
aF1.7624103734928553
aF0.23522479886719339
aF0.23522479886719339
aa(lp973
F1.7647660671225367
aF1.7647660671225367
aF0.235910085609504
aF0.235910085609504
aa(lp974
F1.7671284982043858
aF1.7671284982043858
aF0.23657227213482201
aF0.23657227213482201
aa(lp975
F1.7694974352261852
aF1.7694974352261852
aF0.23721125720109626
aF0.23721125720109626
aa(lp976
F1.7718726456836862
aF1.7718726456836862
aF0.23782694324677323
aF0.23782694324677323
aa(lp977
F1.77425389611534
aF1.77425389611534
aF0.23841923639190554
aF0.23841923639190554
aa(lp978
F1.776640952134585
aF1.776640952134585
aF0.23898804643900462
aF0.23898804643900462
aa(lp979
F1.779033578477538
aF1.779033578477538
aF0.23953328687133535
aF0.23953328687133535
aa(lp980
F1.7814315390306206
aF1.7814315390306206
aF0.24005487485365506
aF0.24005487485365506
aa(lp981
F1.783834596868246
aF1.783834596868246
aF0.24055273123298093
aF0.24055273123298093
aa(lp982
F1.7862425142976122
aF1.7862425142976122
aF0.24102678053711202
aF0.24102678053711202
aa(lp983
F1.7886550528830867
aF1.7886550528830867
aF0.2414769509762209
aF0.2414769509762209
aa(lp984
F1.7910719734937857
aF1.7910719734937857
aF0.24190317444083576
aF0.24190317444083576
aa(lp985
F1.7934930363339276
aF1.7934930363339276
aF0.24230538650448352
aF0.24230538650448352
aa(lp986
F1.7959180009827946
aF1.7959180009827946
aF0.24268352642107516
aF0.24268352642107516
aa(lp987
F1.798346626430714
aF1.798346626430714
aF0.2430375371268383
aF0.2430375371268383
aa(lp988
F1.8007786711160634
aF1.8007786711160634
aF0.24336736523881086
aF0.24336736523881086
aa(lp989
F1.8032138929609687
aF1.8032138929609687
aF0.24367296105651803
aF0.24367296105651803
aa(lp990
F1.8056520494095025
aF1.8056520494095025
aF0.2439542785601816
aF0.2439542785601816
aa(lp991
F1.8080928974632684
aF1.8080928974632684
aF0.24421127541199894
aF0.24421127541199894
aa(lp992
F1.8105361937193152
aF1.8105361937193152
aF0.2444439129557736
aF0.2444439129557736
aa(lp993
F1.8129816944074832
aF1.8129816944074832
aF0.24465215621677316
aF0.24465215621677316
aa(lp994
F1.8154291554248516
aF1.8154291554248516
aF0.2448359739013597
aF0.2448359739013597
aa(lp995
F1.8178783323739935
aF1.8178783323739935
aF0.24499533839858145
aF0.24499533839858145
aa(lp996
F1.8203289806018006
aF1.8203289806018006
aF0.24513022577778543
aF0.24513022577778543
aa(lp997
F1.8227808552311444
aF1.8227808552311444
aF0.24524061579043632
aF0.24524061579043632
aa(lp998
F1.8252337112042483
aF1.8252337112042483
aF0.24532649187000288
aF0.24532649187000288
aa(lp999
F1.8276873033122456
aF1.8276873033122456
aF0.2453878411307926
aF0.2453878411307926
aa(lp1000
F1.8301413862394043
aF1.8301413862394043
aF0.2454246543686054
aF0.2454246543686054
aa(lp1001
F1.832595714594106
aF1.832595714594106
aF0.24543692606164313
aF0.24543692606164313
aa(lp1002
F1.8350500429485805
aF1.8350500429485805
aF0.24542465436886118
aF0.24542465436886118
aa(lp1003
F1.837504125876137
aF1.837504125876137
aF0.2453878411307926
aF0.2453878411307926
aa(lp1004
F1.8399577179847597
aF1.8399577179847597
aF0.24532649187000288
aF0.24532649187000288
aa(lp1005
F1.8424105739568972
aF1.8424105739568972
aF0.24524061579074896
aF0.24524061579074896
aa(lp1006
F1.8448624485872074
aF1.8448624485872074
aF0.245130225777757
aF0.245130225777757
aa(lp1007
F1.8473130968138207
aF1.8473130968138207
aF0.24499533839860987
aF0.24499533839860987
aa(lp1008
F1.8497622737642132
aF1.8497622737642132
aF0.24483597390147338
aF0.24483597390147338
aa(lp1009
F1.8522097347807858
aF1.8522097347807858
aF0.24465215621663106
aF0.24465215621663106
aa(lp1010
F1.8546552354695223
aF1.8546552354695223
aF0.24444391295571677
aF0.24444391295571677
aa(lp1011
F1.8570985317251711
aF1.8570985317251711
aF0.24421127541191368
aF0.24421127541191368
aa(lp1012
F1.8595393797791644
aF1.8595393797791644
aF0.24395427856009633
aF0.24395427856009633
aa(lp1013
F1.8619775362278688
aF1.8619775362278688
aF0.24367296105640435
aF0.24367296105640435
aa(lp1014
F1.8644127580723762
aF1.8644127580723762
aF0.24336736523875402
aF0.24336736523875402
aa(lp1015
F1.8668448027581235
aF1.8668448027581235
aF0.24303753712669618
aF0.24303753712669618
aa(lp1016
F1.869273428205645
aF1.869273428205645
aF0.24268352642116042
aF0.24268352642116042
aa(lp1017
F1.8716983928549098
aF1.8716983928549098
aF0.2423053865043414
aF0.2423053865043414
aa(lp1018
F1.8741194556951655
aF1.8741194556951655
aF0.24190317444100629
aF0.24190317444100629
aa(lp1019
F1.876536376305694
aF1.876536376305694
aF0.24147695097599353
aF0.24147695097599353
aa(lp1020
F1.8789489148912253
aF1.8789489148912253
aF0.24102678053705517
aF0.24102678053705517
aa(lp1021
F1.881356832319625
aF1.881356832319625
aF0.24055273123298093
aF0.24055273123298093
aa(lp1022
F1.8837598901587853
aF1.8837598901587853
aF0.24005487485365506
aF0.24005487485365506
aa(lp1023
F1.886157850710788
aF1.886157850710788
aF0.23953328687110798
aF0.23953328687110798
aa(lp1024
F1.888550477054082
aF1.888550477054082
aF0.23898804643900462
aF0.23898804643900462
aa(lp1025
F1.89093753307435
aF1.89093753307435
aF0.23841923639204765
aF0.23841923639204765
aa(lp1026
F1.8933187835045828
aF1.8933187835045828
aF0.23782694324671638
aF0.23782694324671638
aa(lp1027
F1.8956939939623112
aF1.8956939939623112
aF0.23721125720106784
aF0.23721125720106784
aa(lp1028
F1.8980629309845654
aF1.8980629309845654
aF0.23657227213496412
aF0.23657227213496412
aa(lp1029
F1.9004253620661302
aF1.9004253620661302
aF0.23591008560944715
aF0.23591008560944715
aa(lp1030
F1.9027810556952431
aF1.9027810556952431
aF0.23522479886716496
aF0.23522479886716496
aa(lp1031
F1.9051297813918495
aF1.9051297813918495
aF0.23451651683274122
aF0.23451651683274122
aa(lp1032
F1.9074713097429026
aF1.9074713097429026
aF0.23378534811143936
aF0.23378534811143936
aa(lp1033
F1.9098054124391979
aF1.9098054124391979
aF0.23303140499083952
aF0.23303140499083952
aa(lp1034
F1.9121318623140269
aF1.9121318623140269
aF0.23225480344041216
aF0.23225480344041216
aa(lp1035
F1.9144504333785335
aF1.9144504333785335
aF0.23145566311018229
aF0.23145566311018229
aa(lp1036
F1.916760900858435
aF1.916760900858435
aF0.2306341073321505
aF0.2306341073321505
aa(lp1037
F1.9190630412298333
aF1.9190630412298333
aF0.22979026312012252
aF0.22979026312012252
aa(lp1038
F1.921356632260597
aF1.921356632260597
aF0.228924261169567
aF0.228924261169567
aa(lp1039
F1.9236414530412844
aF1.9236414530412844
aF0.228036235856365
aF0.228036235856365
aa(lp1040
F1.9259172840266956
aF1.9259172840266956
aF0.2271263252391691
aF0.2271263252391691
aa(lp1041
F1.9281839070676483
aF1.9281839070676483
aF0.2261946710582663
aF0.2261946710582663
aa(lp1042
F1.9304411054533261
aF1.9304411054533261
aF0.2252414187346119
aF0.2252414187346119
aa(lp1043
F1.9326886639445888
aF1.9326886639445888
aF0.2242667173711368
aF0.2242667173711368
aa(lp1044
F1.9349263688126825
aF1.9349263688126825
aF0.22327071975215063
aF0.22327071975215063
aa(lp1045
F1.937154007873687
aF1.937154007873687
aF0.22225358234427972
aF0.22225358234427972
aa(lp1046
F1.9393713705266578
aF1.9393713705266578
aF0.2212154652945344
aF0.2212154652945344
aa(lp1047
F1.9415782477927337
aF1.9415782477927337
aF0.22015653243252586
aF0.22015653243252586
aa(lp1048
F1.943774432347766
aF1.943774432347766
aF0.21907695126867566
aF0.21907695126867566
aa(lp1049
F1.9459597185602888
aF1.9459597185602888
aF0.21797689299501144
aF0.21797689299501144
aa(lp1050
F1.9481339025333568
aF1.9481339025333568
aF0.21685653248584913
aF0.21685653248584913
aa(lp1051
F1.950296782131204
aF1.950296782131204
aF0.21571604829631497
aF0.21571604829631497
aa(lp1052
F1.9524481570264811
aF1.9524481570264811
aF0.214555622663255
aF0.214555622663255
aa(lp1053
F1.9545878287324285
aF1.9545878287324285
aF0.21337544150526355
aF0.21337544150526355
aa(lp1054
F1.956715600636926
aF1.956715600636926
aF0.21217569442228523
aF0.21217569442228523
aa(lp1055
F1.9588312780447836
aF1.9588312780447836
aF0.2109565746959845
aF0.2109565746959845
aa(lp1056
F1.960934668212019
aF1.960934668212019
aF0.20971827928926245
aF0.20971827928926245
aa(lp1057
F1.9630255803803607
aF1.9630255803803607
aF0.20846100884739371
aF0.20846100884739371
aa(lp1058
F1.9651038258190852
aF1.9651038258190852
aF0.2071849676959232
aF0.2071849676959232
aa(lp1059
F1.9671692178588955
aF1.9671692178588955
aF0.20589036384274095
aF0.20589036384274095
aa(lp1060
F1.9692215719254023
aF1.9692215719254023
aF0.20457740897782628
aF0.20457740897782628
aa(lp1061
F1.9712607055855074
aF1.9712607055855074
aF0.20324631847131513
aF0.20324631847131513
aa(lp1062
F1.9732864385728135
aF1.9732864385728135
aF0.20189731137645595
aF0.20189731137645595
aa(lp1063
F1.9752985928328712
aF1.9752985928328712
aF0.20053061042636955
aF0.20053061042636955
aa(lp1064
F1.977296992556603
aF1.977296992556603
aF0.19914644203714715
aF0.19914644203714715
aa(lp1065
F1.979281464214921
aF1.979281464214921
aF0.19774503630600293
aF0.19774503630600293
aa(lp1066
F1.9812518366034624
aF1.9812518366034624
aF0.19632662701118875
aF0.19632662701118875
aa(lp1067
F1.983207940867885
aF1.983207940867885
aF0.1948914516132163
aF0.1948914516132163
aa(lp1068
F1.985149610552071
aF1.985149610552071
aF0.19343975125374868
aF0.19343975125374868
aa(lp1069
F1.987076681625524
aF1.987076681625524
aF0.19197177075622562
aF0.19197177075622562
aa(lp1070
F1.9889889925271973
aF1.9889889925271973
aF0.19048775862572143
aF0.19048775862572143
aa(lp1071
F1.9908863841994844
aF1.9908863841994844
aF0.18898796704806387
aF0.18898796704806387
aa(lp1072
F1.992768700122781
aF1.992768700122781
aF0.1874726518919374
aF0.1874726518919374
aa(lp1073
F1.9946357863569801
aF1.9946357863569801
aF0.18594207270658103
aF0.18594207270658103
aa(lp1074
F1.9964874915741007
aF1.9964874915741007
aF0.18439649272272618
aF0.18439649272272618
aa(lp1075
F1.9983236670972815
aF1.9983236670972815
aF0.1828361788536199
aF0.1828361788536199
aa(lp1076
F2.000144166939549
aF2.000144166939549
aF0.1812614016933196
aF0.1812614016933196
aa(lp1077
F2.001948847834683
aF2.001948847834683
aF0.17967243551751721
aF0.17967243551751721
aa(lp1078
F2.0037375692790533
aF2.0037375692790533
aF0.17806955828376658
aF0.17806955828376658
aa(lp1079
F2.0055101935684547
aF2.0055101935684547
aF0.1764530516302898
aF0.1764530516302898
aa(lp1080
F2.0072665858318715
aF2.0072665858318715
aF0.17482320087808034
aF0.17482320087808034
aa(lp1081
F2.0090066140680847
aF2.0090066140680847
aF0.1731802950288852
aF0.1731802950288852
aa(lp1082
F2.0107301491899534
aF2.0107301491899534
aF0.17152462676634173
aF0.17152462676634173
aa(lp1083
F2.0124370650508467
aF2.0124370650508467
aF0.16985649245560808
aF0.16985649245560808
aa(lp1084
F2.0141272384854005
aF2.0141272384854005
aF0.16817619214350543
aF0.16817619214350543
aa(lp1085
F2.0158005493516953
aF2.0158005493516953
aF0.16648402955786423
aF0.16648402955786423
aa(lp1086
F2.0174568805597914
aF2.0174568805597914
aF0.1647803121081779
aF0.1647803121081779
aa(lp1087
F2.019096118114362
aF2.019096118114362
aF0.1630653508862565
aF0.1630653508862565
aa(lp1088
F2.020718151146923
aF2.020718151146923
aF0.1613394606652605
aF0.1613394606652605
aa(lp1089
F2.0223228719586928
aF2.0223228719586928
aF0.1596029598986206
aF0.1596029598986206
aa(lp1090
F2.023910176050208
aF2.023910176050208
aF0.157856170723079
aF0.157856170723079
aa(lp1091
F2.0254799621631037
aF2.0254799621631037
aF0.1560994189560745
aF0.1560994189560745
aa(lp1092
F2.0270321323188227
aF2.0270321323188227
aF0.1543330340958846
aF0.1543330340958846
aa(lp1093
F2.0285665918459017
aF2.0285665918459017
aF0.15255734932435416
aF0.15255734932435416
aa(lp1094
F2.030083249427605
aF2.030083249427605
aF0.15077270150308664
aF0.15077270150308664
aa(lp1095
F2.0315820171342693
aF2.0315820171342693
aF0.1489794311753485
aF0.1489794311753485
aa(lp1096
F2.033062810457295
aF2.033062810457295
aF0.14717788256731978
aF0.14717788256731978
aa(lp1097
F2.03452554835053
aF2.03452554835053
aF0.1453684035853655
aF0.1453684035853655
aa(lp1098
F2.035970153266021
aF2.035970153266021
aF0.14355134581754214
aF0.14355134581754214
aa(lp1099
F2.0373965511879533
aF2.0373965511879533
aF0.14172706453456385
aF0.14172706453456385
aa(lp1100
F2.0388046716738586
aF2.0388046716738586
aF0.1398959186873867
aF0.1398959186873867
aa(lp1101
F2.04019444788878
aF2.04019444788878
aF0.13805827090951084
aF0.13805827090951084
aa(lp1102
F2.041565816639036
aF2.041565816639036
aF0.13621448751524667
aF0.13621448751524667
aa(lp1103
F2.042918718418946
aF2.042918718418946
aF0.13436493850073816
aF0.13436493850073816
aa(lp1104
F2.044253097435842
aF2.044253097435842
aF0.13250999754339432
aF0.13250999754339432
aa(lp1105
F2.045568901654292
aF2.045568901654292
aF0.13065004200319663
aF0.13065004200319663
aa(lp1106
F2.0468660828306042
aF2.0468660828306042
aF0.12878545292048216
aF0.12878545292048216
aa(lp1107
F2.048144596549605
aF2.048144596549605
aF0.12691661501807516
aF0.12691661501807516
aa(lp1108
F2.0494044022617572
aF2.0494044022617572
aF0.12504391669932602
aF0.12504391669932602
aa(lp1109
F2.0506454633220983
aF2.0506454633220983
aF0.12316775004984493
aF0.12316775004984493
aa(lp1110
F2.051867747021447
aF2.051867747021447
aF0.12128851083724612
aF0.12128851083724612
aa(lp1111
F2.05307122462807
aF2.05307122462807
aF0.11940659850975521
aF0.11940659850975521
aa(lp1112
F2.0542558714232655
aF2.0542558714232655
aF0.11752241619723236
aF0.11752241619723236
aa(lp1113
F2.055421666741381
aF2.055421666741381
aF0.11563637071165545
aF0.11563637071165545
aa(lp1114
F2.0565685939958485
aF2.0565685939958485
aF0.113748872546239
aF0.113748872546239
aa(lp1115
F2.057696640729546
aF2.057696640729546
aF0.11186033587597422
aF0.11186033587597422
aa(lp1116
F2.05880579864413
aF2.05880579864413
aF0.10997117855711736
aF0.10997117855711736
aa(lp1117
F2.0598960636372112
aF2.0598960636372112
aF0.1080818221273887
aF0.1080818221273887
aa(lp1118
F2.0609674358395296
aF2.0609674358395296
aF0.10619269180656943
aF0.10619269180656943
aa(lp1119
F2.062019919655654
aF2.062019919655654
aF0.1043042164957626
aF0.1043042164957626
aa(lp1120
F2.0630535237947925
aF2.0630535237947925
aF0.10241682877673952
aF0.10241682877673952
aa(lp1121
F2.0640682613104673
aF2.0640682613104673
aF0.10053096491472502
aF0.10053096491472502
aa(lp1122
F2.065064149638488
aF2.065064149638488
aF0.09864706485478791
aF0.09864706485478791
aa(lp1123
F2.0660412106316244
aF2.0660412106316244
aF0.09676557222414317
aF0.09676557222414317
aa(lp1124
F2.066999470598489
aF2.066999470598489
aF0.09488693433175399
aF0.09488693433175399
aa(lp1125
F2.0679389603368463
aF2.0679389603368463
aF0.09301160216816129
aF0.09301160216816129
aa(lp1126
F2.0688597151760177
aF2.0688597151760177
aF0.09114003040505736
aF0.09114003040505736
aa(lp1127
F2.069761775007578
aF2.069761775007578
aF0.08927267739579747
aF0.08927267739579747
aa(lp1128
F2.070645184326054
aF2.070645184326054
aF0.08741000517551356
aF0.08741000517551356
aa(lp1129
F2.071509992265419
aF2.071509992265419
aF0.08555247946094369
aF0.08555247946094369
aa(lp1130
F2.0723562526343358
aF2.0723562526343358
aF0.08370056964992045
aF0.08370056964992045
aa(lp1131
F2.073184023954127
aF2.073184023954127
aF0.08185474882219523
aF0.08185474882219523
aa(lp1132
F2.0739933694975434
aF2.0739933694975434
aF0.080015493738955
aF0.080015493738955
aa(lp1133
F2.0747843573158207
aF2.0747843573158207
aF0.0781832848433055
aF0.0781832848433055
aa(lp1134
F2.0755570602931357
aF2.0755570602931357
aF0.07635860625939017
aF0.07635860625939017
aa(lp1135
F2.0763115561683207
aF2.0763115561683207
aF0.07454194579250384
aF0.07454194579250384
aa(lp1136
F2.07704792757454
aF2.07704792757454
aF0.0727337949311675
aF0.0727337949311675
aa(lp1137
F2.077766262082946
aF2.077766262082946
aF0.07093464884380296
aF0.07093464884380296
aa(lp1138
F2.078466652230418
aF2.078466652230418
aF0.06914500638060872
aF0.06914500638060872
aa(lp1139
F2.079149195562877
aF2.079149195562877
aF0.06736537007446941
aF0.06736537007446941
aa(lp1140
F2.0798139946716674
aF2.0798139946716674
aF0.06559624613868209
aF0.06559624613868209
aa(lp1141
F2.080461157226864
aF2.080461157226864
aF0.06383814446826364
aF0.06383814446826364
aa(lp1142
F2.0810907960137683
aF2.0810907960137683
aF0.062091578640718126
aF0.062091578640718126
aa(lp1143
F2.08170302897679
aF2.08170302897679
aF0.06035706591325152
aF0.06035706591325152
aa(lp1144
F2.082297979245368
aF2.082297979245368
aF0.05863512722623909
aF0.05863512722623909
aa(lp1145
F2.0828757751822877
aF2.0828757751822877
aF0.056926287201065406
aF0.056926287201065406
aa(lp1146
F2.0834365504132393
aF2.0834365504132393
aF0.05523107414103379
aF0.05523107414103379
aa(lp1147
F2.083980443861037
aF2.083980443861037
aF0.053550020031138956
aF0.053550020031138956
aa(lp1148
F2.0845075997946196
aF2.0845075997946196
aF0.05188366053585014
aF0.05188366053585014
aa(lp1149
F2.0850181678524677
aF2.0850181678524677
aF0.050232535004226975
aF0.050232535004226975
aa(lp1150
F2.0855123030847835
aF2.0855123030847835
aF0.04859718646468991
aF0.04859718646468991
aa(lp1151
F2.085990165993053
aF2.085990165993053
aF0.046978161628771886
aF0.046978161628771886
aa(lp1152
F2.0864519225642653
aF2.0864519225642653
aF0.04537601088787824
aF0.04537601088787824
aa(lp1153
F2.0868977443039967
aF2.0868977443039967
aF0.043791288316640475
aF0.043791288316640475
aa(lp1154
F2.087327808281657
aF2.087327808281657
aF0.042224551670074106
aF0.042224551670074106
aa(lp1155
F2.0877422971616397
aF2.0877422971616397
aF0.04067636238488603
aF0.04067636238488603
aa(lp1156
F2.0881413992379976
aF2.0881413992379976
aF0.03914728558027036
aF0.03914728558027036
aa(lp1157
F2.088525308476733
aF2.088525308476733
aF0.037637890056032575
aF0.037637890056032575
aa(lp1158
F2.0888942245511544
aF2.0888942245511544
aF0.03614874829366954
aF0.03614874829366954
aa(lp1159
F2.0892483528762114
aF2.0892483528762114
aF0.034680436456199004
aF0.034680436456199004
aa(lp1160
F2.0895879046453274
aF2.0895879046453274
aF0.03323353438878485
aF0.03323353438878485
aa(lp1161
F2.089913096874511
aF2.089913096874511
aF0.03180862561725917
aF0.03180862561725917
aa(lp1162
F2.090224152426231
aF2.090224152426231
aF0.030406297349998113
aF0.030406297349998113
aa(lp1163
F2.090521300059436
aF2.090521300059436
aF0.0290271404759892
aF0.0290271404759892
aa(lp1164
F2.090804774455478
aF2.090804774455478
aF0.027671749566309245
aF0.027671749566309245
aa(lp1165
F2.091074816264495
aF2.091074816264495
aF0.026340722873726463
aF0.026340722873726463
aa(lp1166
F2.091331672132128
aF2.091331672132128
aF0.02503466233179097
aF0.02503466233179097
aa(lp1167
F2.0915755947485195
aF2.0915755947485195
aF0.023754173556426394
aF0.023754173556426394
aa(lp1168
F2.0918068428732113
aF2.0918068428732113
aF0.022499865845020395
aF0.022499865845020395
aa(lp1169
F2.092025681379255
aF2.092025681379255
aF0.021272352175856213
aF0.021272352175856213
aa(lp1170
F2.0922323812854984
aF2.0922323812854984
aF0.020072249209135862
aF0.020072249209135862
aa(lp1171
F2.092427219798992
aF2.092427219798992
aF0.01890017728726434
aF0.01890017728726434
aa(lp1172
F2.0926104803479575
aF2.0926104803479575
aF0.01775676043320118
aF0.01775676043320118
aa(lp1173
F2.092782452616575
aF2.092782452616575
aF0.01664262635210889
aF0.01664262635210889
aa(lp1174
F2.092943432587731
aF2.092943432587731
aF0.01555840643021611
aF0.01555840643021611
aa(lp1175
F2.0930937225759862
aF2.0930937225759862
aF0.014504735735556551
aF0.014504735735556551
aa(lp1176
F2.0932336312621374
aF2.0932336312621374
aF0.013482253018366919
aF0.013482253018366919
aa(lp1177
F2.093363473737895
aF2.093363473737895
aF0.012491600708926853
aF0.012491600708926853
aa(lp1178
F2.0934835715308964
aF2.0934835715308964
aF0.011533424920571633
aF0.011533424920571633
aa(lp1179
F2.093594252657226
aF2.093594252657226
aF0.010608375446850005
aF0.010608375446850005
aa(lp1180
F2.0936958516386994
aF2.0936958516386994
aF0.009717105764764256
aF0.009717105764764256
aa(lp1181
F2.0937887095610677
aF2.0937887095610677
aF0.008860273030620647
aF0.008860273030620647
aa(lp1182
F2.093873174092437
aF2.093873174092437
aF0.008038538083781077
aF0.008038538083781077
aa(lp1183
F2.093949599530447
aF2.093949599530447
aF0.007252565444332504
aF0.007252565444332504
aa(lp1184
F2.094018346835014
aF2.094018346835014
aF0.006503023314905931
aF0.006503023314905931
aa(lp1185
F2.0940797836709635
aF2.0940797836709635
aF0.005790583578686892
aF0.005790583578686892
aa(lp1186
F2.09413428443213
aF2.09413428443213
aF0.005115921801291279
aF0.005115921801291279
aa(lp1187
F2.0941822302969513
aF2.0941822302969513
aF0.0044797172286052955
aF0.0044797172286052955
aa(lp1188
F2.094224009243703
aF2.094224009243703
aF0.0038826527894570972
aF0.0038826527894570972
aa(lp1189
F2.0942600161083647
aF2.0942600161083647
aF0.003325415093513584
aF0.003325415093513584
aa(lp1190
F2.0942906526041725
aF2.0942906526041725
aF0.002808694431564618
aF0.002808694431564618
aa(lp1191
F2.094316327366869
aF2.094316327366869
aF0.002333184777739916
aF0.002333184777739916
aa(lp1192
F2.094337455993241
aF2.094337455993241
aF0.0018995837858142295
aF0.0018995837858142295
aa(lp1193
F2.0943544610742038
aF2.0943544610742038
aF0.001508592791878982
aF0.001508592791878982
aa(lp1194
F2.094367772232431
aF2.094367772232431
aF0.0011609168133190906
aF0.0011609168133190906
aa(lp1195
F2.094377826156574
aF2.094377826156574
aF0.0008572645495519282
aF0.0008572645495519282
aa(lp1196
F2.094385066642758
aF2.094385066642758
aF0.0005983483803788658
aF0.0005983483803788658
aa(lp1197
F2.094389944630848
aF2.094389944630848
aF0.00038488436979378093
aF0.00038488436979378093
aa(lp1198
F2.0943929182367356
aF2.0943929182367356
aF0.00021759225961659467
aF0.00021759225961659467
aa(lp1199
F2.0943944527934946
aF2.0943944527934946
aF9.719547659869932e-05
aF9.719547659869932e-05
aa(lp1200
F2.094395020887873
aF2.094395020887873
aF2.4421127307050483e-05
aF2.4421127307050483e-05
aa(lp1201
F2.094395102392582
aF2.094395102392582
aF0.0
aF0.0
aa.